
kernel/kernel:     file format elf64-littleriscv


Disassembly of section .text:

0000000080000000 <_entry>:
    80000000:	0001b117          	auipc	sp,0x1b
    80000004:	53010113          	addi	sp,sp,1328 # 8001b530 <stack0>
    80000008:	6505                	lui	a0,0x1
    8000000a:	f14025f3          	csrr	a1,mhartid
    8000000e:	0585                	addi	a1,a1,1
    80000010:	02b50533          	mul	a0,a0,a1
    80000014:	912a                	add	sp,sp,a0
    80000016:	6b1040ef          	jal	80004ec6 <start>

000000008000001a <spin>:
    8000001a:	a001                	j	8000001a <spin>

000000008000001c <kfree>:
// which normally should have been returned by a
// call to kalloc().  (The exception is when
// initializing the allocator; see kinit above.)
void
kfree(void *pa)
{
    8000001c:	1101                	addi	sp,sp,-32
    8000001e:	ec06                	sd	ra,24(sp)
    80000020:	e822                	sd	s0,16(sp)
    80000022:	e426                	sd	s1,8(sp)
    80000024:	e04a                	sd	s2,0(sp)
    80000026:	1000                	addi	s0,sp,32
  struct run *r;

  if(((uint64)pa % PGSIZE) != 0 || (char*)pa < end || (uint64)pa >= PHYSTOP)
    80000028:	00023797          	auipc	a5,0x23
    8000002c:	60878793          	addi	a5,a5,1544 # 80023630 <end>
    80000030:	00f53733          	sltu	a4,a0,a5
    80000034:	47c5                	li	a5,17
    80000036:	07ee                	slli	a5,a5,0x1b
    80000038:	17fd                	addi	a5,a5,-1
    8000003a:	00a7b7b3          	sltu	a5,a5,a0
    8000003e:	8fd9                	or	a5,a5,a4
    80000040:	ef95                	bnez	a5,8000007c <kfree+0x60>
    80000042:	84aa                	mv	s1,a0
    80000044:	03451793          	slli	a5,a0,0x34
    80000048:	eb95                	bnez	a5,8000007c <kfree+0x60>
    panic("kfree");

  // Fill with junk to catch dangling refs.
  memset(pa, 1, PGSIZE);
    8000004a:	6605                	lui	a2,0x1
    8000004c:	4585                	li	a1,1
    8000004e:	110000ef          	jal	8000015e <memset>

  r = (struct run*)pa;

  acquire(&kmem.lock);
    80000052:	0000a917          	auipc	s2,0xa
    80000056:	2ae90913          	addi	s2,s2,686 # 8000a300 <kmem>
    8000005a:	854a                	mv	a0,s2
    8000005c:	121050ef          	jal	8000597c <acquire>
  r->next = kmem.freelist;
    80000060:	01893783          	ld	a5,24(s2)
    80000064:	e09c                	sd	a5,0(s1)
  kmem.freelist = r;
    80000066:	00993c23          	sd	s1,24(s2)
  release(&kmem.lock);
    8000006a:	854a                	mv	a0,s2
    8000006c:	1a5050ef          	jal	80005a10 <release>
}
    80000070:	60e2                	ld	ra,24(sp)
    80000072:	6442                	ld	s0,16(sp)
    80000074:	64a2                	ld	s1,8(sp)
    80000076:	6902                	ld	s2,0(sp)
    80000078:	6105                	addi	sp,sp,32
    8000007a:	8082                	ret
    panic("kfree");
    8000007c:	00007517          	auipc	a0,0x7
    80000080:	f8450513          	addi	a0,a0,-124 # 80007000 <etext>
    80000084:	5ba050ef          	jal	8000563e <panic>

0000000080000088 <freerange>:
{
    80000088:	7179                	addi	sp,sp,-48
    8000008a:	f406                	sd	ra,40(sp)
    8000008c:	f022                	sd	s0,32(sp)
    8000008e:	ec26                	sd	s1,24(sp)
    80000090:	1800                	addi	s0,sp,48
  p = (char*)PGROUNDUP((uint64)pa_start);
    80000092:	6785                	lui	a5,0x1
    80000094:	fff78713          	addi	a4,a5,-1 # fff <_entry-0x7ffff001>
    80000098:	00e504b3          	add	s1,a0,a4
    8000009c:	777d                	lui	a4,0xfffff
    8000009e:	8cf9                	and	s1,s1,a4
  for(; p + PGSIZE <= (char*)pa_end; p += PGSIZE)
    800000a0:	94be                	add	s1,s1,a5
    800000a2:	0295e263          	bltu	a1,s1,800000c6 <freerange+0x3e>
    800000a6:	e84a                	sd	s2,16(sp)
    800000a8:	e44e                	sd	s3,8(sp)
    800000aa:	e052                	sd	s4,0(sp)
    800000ac:	892e                	mv	s2,a1
    kfree(p);
    800000ae:	8a3a                	mv	s4,a4
  for(; p + PGSIZE <= (char*)pa_end; p += PGSIZE)
    800000b0:	89be                	mv	s3,a5
    kfree(p);
    800000b2:	01448533          	add	a0,s1,s4
    800000b6:	f67ff0ef          	jal	8000001c <kfree>
  for(; p + PGSIZE <= (char*)pa_end; p += PGSIZE)
    800000ba:	94ce                	add	s1,s1,s3
    800000bc:	fe997be3          	bgeu	s2,s1,800000b2 <freerange+0x2a>
    800000c0:	6942                	ld	s2,16(sp)
    800000c2:	69a2                	ld	s3,8(sp)
    800000c4:	6a02                	ld	s4,0(sp)
}
    800000c6:	70a2                	ld	ra,40(sp)
    800000c8:	7402                	ld	s0,32(sp)
    800000ca:	64e2                	ld	s1,24(sp)
    800000cc:	6145                	addi	sp,sp,48
    800000ce:	8082                	ret

00000000800000d0 <kinit>:
{
    800000d0:	1141                	addi	sp,sp,-16
    800000d2:	e406                	sd	ra,8(sp)
    800000d4:	e022                	sd	s0,0(sp)
    800000d6:	0800                	addi	s0,sp,16
  initlock(&kmem.lock, "kmem");
    800000d8:	00007597          	auipc	a1,0x7
    800000dc:	f3858593          	addi	a1,a1,-200 # 80007010 <etext+0x10>
    800000e0:	0000a517          	auipc	a0,0xa
    800000e4:	22050513          	addi	a0,a0,544 # 8000a300 <kmem>
    800000e8:	00b050ef          	jal	800058f2 <initlock>
  freerange(end, (void*)PHYSTOP);
    800000ec:	45c5                	li	a1,17
    800000ee:	05ee                	slli	a1,a1,0x1b
    800000f0:	00023517          	auipc	a0,0x23
    800000f4:	54050513          	addi	a0,a0,1344 # 80023630 <end>
    800000f8:	f91ff0ef          	jal	80000088 <freerange>
}
    800000fc:	60a2                	ld	ra,8(sp)
    800000fe:	6402                	ld	s0,0(sp)
    80000100:	0141                	addi	sp,sp,16
    80000102:	8082                	ret

0000000080000104 <kalloc>:
// Allocate one 4096-byte page of physical memory.
// Returns a pointer that the kernel can use.
// Returns 0 if the memory cannot be allocated.
void *
kalloc(void)
{
    80000104:	1101                	addi	sp,sp,-32
    80000106:	ec06                	sd	ra,24(sp)
    80000108:	e822                	sd	s0,16(sp)
    8000010a:	e426                	sd	s1,8(sp)
    8000010c:	1000                	addi	s0,sp,32
  struct run *r;

  acquire(&kmem.lock);
    8000010e:	0000a517          	auipc	a0,0xa
    80000112:	1f250513          	addi	a0,a0,498 # 8000a300 <kmem>
    80000116:	067050ef          	jal	8000597c <acquire>
  r = kmem.freelist;
    8000011a:	0000a497          	auipc	s1,0xa
    8000011e:	1fe4b483          	ld	s1,510(s1) # 8000a318 <kmem+0x18>
  if(r)
    80000122:	c49d                	beqz	s1,80000150 <kalloc+0x4c>
    kmem.freelist = r->next;
    80000124:	609c                	ld	a5,0(s1)
    80000126:	0000a717          	auipc	a4,0xa
    8000012a:	1ef73923          	sd	a5,498(a4) # 8000a318 <kmem+0x18>
  release(&kmem.lock);
    8000012e:	0000a517          	auipc	a0,0xa
    80000132:	1d250513          	addi	a0,a0,466 # 8000a300 <kmem>
    80000136:	0db050ef          	jal	80005a10 <release>

  if(r)
    memset((char*)r, 5, PGSIZE); // fill with junk
    8000013a:	6605                	lui	a2,0x1
    8000013c:	4595                	li	a1,5
    8000013e:	8526                	mv	a0,s1
    80000140:	01e000ef          	jal	8000015e <memset>
  return (void*)r;
}
    80000144:	8526                	mv	a0,s1
    80000146:	60e2                	ld	ra,24(sp)
    80000148:	6442                	ld	s0,16(sp)
    8000014a:	64a2                	ld	s1,8(sp)
    8000014c:	6105                	addi	sp,sp,32
    8000014e:	8082                	ret
  release(&kmem.lock);
    80000150:	0000a517          	auipc	a0,0xa
    80000154:	1b050513          	addi	a0,a0,432 # 8000a300 <kmem>
    80000158:	0b9050ef          	jal	80005a10 <release>
  if(r)
    8000015c:	b7e5                	j	80000144 <kalloc+0x40>

000000008000015e <memset>:
#include "types.h"

void*
memset(void *dst, int c, uint n)
{
    8000015e:	1141                	addi	sp,sp,-16
    80000160:	e406                	sd	ra,8(sp)
    80000162:	e022                	sd	s0,0(sp)
    80000164:	0800                	addi	s0,sp,16
  char *cdst = (char *) dst;
  int i;
  for(i = 0; i < n; i++){
    80000166:	ca19                	beqz	a2,8000017c <memset+0x1e>
    80000168:	87aa                	mv	a5,a0
    8000016a:	1602                	slli	a2,a2,0x20
    8000016c:	9201                	srli	a2,a2,0x20
    8000016e:	00a60733          	add	a4,a2,a0
    cdst[i] = c;
    80000172:	00b78023          	sb	a1,0(a5)
  for(i = 0; i < n; i++){
    80000176:	0785                	addi	a5,a5,1
    80000178:	fee79de3          	bne	a5,a4,80000172 <memset+0x14>
  }
  return dst;
}
    8000017c:	60a2                	ld	ra,8(sp)
    8000017e:	6402                	ld	s0,0(sp)
    80000180:	0141                	addi	sp,sp,16
    80000182:	8082                	ret

0000000080000184 <memcmp>:

int
memcmp(const void *v1, const void *v2, uint n)
{
    80000184:	1141                	addi	sp,sp,-16
    80000186:	e406                	sd	ra,8(sp)
    80000188:	e022                	sd	s0,0(sp)
    8000018a:	0800                	addi	s0,sp,16
  const uchar *s1, *s2;

  s1 = v1;
  s2 = v2;
  while(n-- > 0){
    8000018c:	c61d                	beqz	a2,800001ba <memcmp+0x36>
    8000018e:	1602                	slli	a2,a2,0x20
    80000190:	9201                	srli	a2,a2,0x20
    80000192:	00c506b3          	add	a3,a0,a2
    if(*s1 != *s2)
    80000196:	00054783          	lbu	a5,0(a0)
    8000019a:	0005c703          	lbu	a4,0(a1)
    8000019e:	00e79863          	bne	a5,a4,800001ae <memcmp+0x2a>
      return *s1 - *s2;
    s1++, s2++;
    800001a2:	0505                	addi	a0,a0,1
    800001a4:	0585                	addi	a1,a1,1
  while(n-- > 0){
    800001a6:	fed518e3          	bne	a0,a3,80000196 <memcmp+0x12>
  }

  return 0;
    800001aa:	4501                	li	a0,0
    800001ac:	a019                	j	800001b2 <memcmp+0x2e>
      return *s1 - *s2;
    800001ae:	40e7853b          	subw	a0,a5,a4
}
    800001b2:	60a2                	ld	ra,8(sp)
    800001b4:	6402                	ld	s0,0(sp)
    800001b6:	0141                	addi	sp,sp,16
    800001b8:	8082                	ret
  return 0;
    800001ba:	4501                	li	a0,0
    800001bc:	bfdd                	j	800001b2 <memcmp+0x2e>

00000000800001be <memmove>:

void*
memmove(void *dst, const void *src, uint n)
{
    800001be:	1141                	addi	sp,sp,-16
    800001c0:	e406                	sd	ra,8(sp)
    800001c2:	e022                	sd	s0,0(sp)
    800001c4:	0800                	addi	s0,sp,16
  const char *s;
  char *d;

  if(n == 0)
    800001c6:	c205                	beqz	a2,800001e6 <memmove+0x28>
    return dst;
  
  s = src;
  d = dst;
  if(s < d && s + n > d){
    800001c8:	02a5e363          	bltu	a1,a0,800001ee <memmove+0x30>
    s += n;
    d += n;
    while(n-- > 0)
      *--d = *--s;
  } else
    while(n-- > 0)
    800001cc:	1602                	slli	a2,a2,0x20
    800001ce:	9201                	srli	a2,a2,0x20
    800001d0:	00c587b3          	add	a5,a1,a2
{
    800001d4:	872a                	mv	a4,a0
      *d++ = *s++;
    800001d6:	0585                	addi	a1,a1,1
    800001d8:	0705                	addi	a4,a4,1
    800001da:	fff5c683          	lbu	a3,-1(a1)
    800001de:	fed70fa3          	sb	a3,-1(a4)
    while(n-- > 0)
    800001e2:	feb79ae3          	bne	a5,a1,800001d6 <memmove+0x18>

  return dst;
}
    800001e6:	60a2                	ld	ra,8(sp)
    800001e8:	6402                	ld	s0,0(sp)
    800001ea:	0141                	addi	sp,sp,16
    800001ec:	8082                	ret
  if(s < d && s + n > d){
    800001ee:	02061693          	slli	a3,a2,0x20
    800001f2:	9281                	srli	a3,a3,0x20
    800001f4:	00d58733          	add	a4,a1,a3
    800001f8:	fce57ae3          	bgeu	a0,a4,800001cc <memmove+0xe>
    d += n;
    800001fc:	96aa                	add	a3,a3,a0
    while(n-- > 0)
    800001fe:	fff6079b          	addiw	a5,a2,-1 # fff <_entry-0x7ffff001>
    80000202:	1782                	slli	a5,a5,0x20
    80000204:	9381                	srli	a5,a5,0x20
    80000206:	fff7c793          	not	a5,a5
    8000020a:	97ba                	add	a5,a5,a4
      *--d = *--s;
    8000020c:	177d                	addi	a4,a4,-1
    8000020e:	16fd                	addi	a3,a3,-1
    80000210:	00074603          	lbu	a2,0(a4)
    80000214:	00c68023          	sb	a2,0(a3)
    while(n-- > 0)
    80000218:	fee79ae3          	bne	a5,a4,8000020c <memmove+0x4e>
    8000021c:	b7e9                	j	800001e6 <memmove+0x28>

000000008000021e <memcpy>:

// memcpy exists to placate GCC.  Use memmove.
void*
memcpy(void *dst, const void *src, uint n)
{
    8000021e:	1141                	addi	sp,sp,-16
    80000220:	e406                	sd	ra,8(sp)
    80000222:	e022                	sd	s0,0(sp)
    80000224:	0800                	addi	s0,sp,16
  return memmove(dst, src, n);
    80000226:	f99ff0ef          	jal	800001be <memmove>
}
    8000022a:	60a2                	ld	ra,8(sp)
    8000022c:	6402                	ld	s0,0(sp)
    8000022e:	0141                	addi	sp,sp,16
    80000230:	8082                	ret

0000000080000232 <strncmp>:

int
strncmp(const char *p, const char *q, uint n)
{
    80000232:	1141                	addi	sp,sp,-16
    80000234:	e406                	sd	ra,8(sp)
    80000236:	e022                	sd	s0,0(sp)
    80000238:	0800                	addi	s0,sp,16
  while(n > 0 && *p && *p == *q)
    8000023a:	ce11                	beqz	a2,80000256 <strncmp+0x24>
    8000023c:	00054783          	lbu	a5,0(a0)
    80000240:	cf89                	beqz	a5,8000025a <strncmp+0x28>
    80000242:	0005c703          	lbu	a4,0(a1)
    80000246:	00f71a63          	bne	a4,a5,8000025a <strncmp+0x28>
    n--, p++, q++;
    8000024a:	367d                	addiw	a2,a2,-1
    8000024c:	0505                	addi	a0,a0,1
    8000024e:	0585                	addi	a1,a1,1
  while(n > 0 && *p && *p == *q)
    80000250:	f675                	bnez	a2,8000023c <strncmp+0xa>
  if(n == 0)
    return 0;
    80000252:	4501                	li	a0,0
    80000254:	a801                	j	80000264 <strncmp+0x32>
    80000256:	4501                	li	a0,0
    80000258:	a031                	j	80000264 <strncmp+0x32>
  return (uchar)*p - (uchar)*q;
    8000025a:	00054503          	lbu	a0,0(a0)
    8000025e:	0005c783          	lbu	a5,0(a1)
    80000262:	9d1d                	subw	a0,a0,a5
}
    80000264:	60a2                	ld	ra,8(sp)
    80000266:	6402                	ld	s0,0(sp)
    80000268:	0141                	addi	sp,sp,16
    8000026a:	8082                	ret

000000008000026c <strncpy>:

char*
strncpy(char *s, const char *t, int n)
{
    8000026c:	1141                	addi	sp,sp,-16
    8000026e:	e406                	sd	ra,8(sp)
    80000270:	e022                	sd	s0,0(sp)
    80000272:	0800                	addi	s0,sp,16
  char *os;

  os = s;
  while(n-- > 0 && (*s++ = *t++) != 0)
    80000274:	87aa                	mv	a5,a0
    80000276:	a011                	j	8000027a <strncpy+0xe>
    80000278:	8636                	mv	a2,a3
    8000027a:	02c05863          	blez	a2,800002aa <strncpy+0x3e>
    8000027e:	fff6069b          	addiw	a3,a2,-1
    80000282:	8836                	mv	a6,a3
    80000284:	0785                	addi	a5,a5,1
    80000286:	0005c703          	lbu	a4,0(a1)
    8000028a:	fee78fa3          	sb	a4,-1(a5)
    8000028e:	0585                	addi	a1,a1,1
    80000290:	f765                	bnez	a4,80000278 <strncpy+0xc>
    ;
  while(n-- > 0)
    80000292:	873e                	mv	a4,a5
    80000294:	01005b63          	blez	a6,800002aa <strncpy+0x3e>
    80000298:	9fb1                	addw	a5,a5,a2
    8000029a:	37fd                	addiw	a5,a5,-1
    *s++ = 0;
    8000029c:	0705                	addi	a4,a4,1
    8000029e:	fe070fa3          	sb	zero,-1(a4)
  while(n-- > 0)
    800002a2:	40e786bb          	subw	a3,a5,a4
    800002a6:	fed04be3          	bgtz	a3,8000029c <strncpy+0x30>
  return os;
}
    800002aa:	60a2                	ld	ra,8(sp)
    800002ac:	6402                	ld	s0,0(sp)
    800002ae:	0141                	addi	sp,sp,16
    800002b0:	8082                	ret

00000000800002b2 <safestrcpy>:

// Like strncpy but guaranteed to NUL-terminate.
char*
safestrcpy(char *s, const char *t, int n)
{
    800002b2:	1141                	addi	sp,sp,-16
    800002b4:	e406                	sd	ra,8(sp)
    800002b6:	e022                	sd	s0,0(sp)
    800002b8:	0800                	addi	s0,sp,16
  char *os;

  os = s;
  if(n <= 0)
    800002ba:	02c05363          	blez	a2,800002e0 <safestrcpy+0x2e>
    800002be:	fff6069b          	addiw	a3,a2,-1
    800002c2:	1682                	slli	a3,a3,0x20
    800002c4:	9281                	srli	a3,a3,0x20
    800002c6:	96ae                	add	a3,a3,a1
    800002c8:	87aa                	mv	a5,a0
    return os;
  while(--n > 0 && (*s++ = *t++) != 0)
    800002ca:	00d58963          	beq	a1,a3,800002dc <safestrcpy+0x2a>
    800002ce:	0585                	addi	a1,a1,1
    800002d0:	0785                	addi	a5,a5,1
    800002d2:	fff5c703          	lbu	a4,-1(a1)
    800002d6:	fee78fa3          	sb	a4,-1(a5)
    800002da:	fb65                	bnez	a4,800002ca <safestrcpy+0x18>
    ;
  *s = 0;
    800002dc:	00078023          	sb	zero,0(a5)
  return os;
}
    800002e0:	60a2                	ld	ra,8(sp)
    800002e2:	6402                	ld	s0,0(sp)
    800002e4:	0141                	addi	sp,sp,16
    800002e6:	8082                	ret

00000000800002e8 <strlen>:

int
strlen(const char *s)
{
    800002e8:	1141                	addi	sp,sp,-16
    800002ea:	e406                	sd	ra,8(sp)
    800002ec:	e022                	sd	s0,0(sp)
    800002ee:	0800                	addi	s0,sp,16
  int n;

  for(n = 0; s[n]; n++)
    800002f0:	00054783          	lbu	a5,0(a0)
    800002f4:	cf91                	beqz	a5,80000310 <strlen+0x28>
    800002f6:	00150793          	addi	a5,a0,1
    800002fa:	86be                	mv	a3,a5
    800002fc:	0785                	addi	a5,a5,1
    800002fe:	fff7c703          	lbu	a4,-1(a5)
    80000302:	ff65                	bnez	a4,800002fa <strlen+0x12>
    80000304:	40a6853b          	subw	a0,a3,a0
    ;
  return n;
}
    80000308:	60a2                	ld	ra,8(sp)
    8000030a:	6402                	ld	s0,0(sp)
    8000030c:	0141                	addi	sp,sp,16
    8000030e:	8082                	ret
  for(n = 0; s[n]; n++)
    80000310:	4501                	li	a0,0
    80000312:	bfdd                	j	80000308 <strlen+0x20>

0000000080000314 <main>:
volatile static int started = 0;

// start() jumps here in supervisor mode on all CPUs.
void
main()
{
    80000314:	1141                	addi	sp,sp,-16
    80000316:	e406                	sd	ra,8(sp)
    80000318:	e022                	sd	s0,0(sp)
    8000031a:	0800                	addi	s0,sp,16
  if(cpuid() == 0){
    8000031c:	237000ef          	jal	80000d52 <cpuid>
    virtio_disk_init(); // emulated hard disk
    userinit();      // first user process
    __sync_synchronize();
    started = 1;
  } else {
    while(started == 0)
    80000320:	0000a717          	auipc	a4,0xa
    80000324:	fb070713          	addi	a4,a4,-80 # 8000a2d0 <started>
  if(cpuid() == 0){
    80000328:	c51d                	beqz	a0,80000356 <main+0x42>
    while(started == 0)
    8000032a:	431c                	lw	a5,0(a4)
    8000032c:	2781                	sext.w	a5,a5
    8000032e:	dff5                	beqz	a5,8000032a <main+0x16>
      ;
    __sync_synchronize();
    80000330:	0330000f          	fence	rw,rw
    printf("hart %d starting\n", cpuid());
    80000334:	21f000ef          	jal	80000d52 <cpuid>
    80000338:	85aa                	mv	a1,a0
    8000033a:	00007517          	auipc	a0,0x7
    8000033e:	cfe50513          	addi	a0,a0,-770 # 80007038 <etext+0x38>
    80000342:	7ed040ef          	jal	8000532e <printf>
    kvminithart();    // turn on paging
    80000346:	080000ef          	jal	800003c6 <kvminithart>
    trapinithart();   // install kernel trap vector
    8000034a:	53a010ef          	jal	80001884 <trapinithart>
    plicinithart();   // ask PLIC for device interrupts
    8000034e:	5ba040ef          	jal	80004908 <plicinithart>
  }

  scheduler();        
    80000352:	66b000ef          	jal	800011bc <scheduler>
    consoleinit();
    80000356:	6ff040ef          	jal	80005254 <consoleinit>
    printfinit();
    8000035a:	31e050ef          	jal	80005678 <printfinit>
    printf("\n");
    8000035e:	00007517          	auipc	a0,0x7
    80000362:	cba50513          	addi	a0,a0,-838 # 80007018 <etext+0x18>
    80000366:	7c9040ef          	jal	8000532e <printf>
    printf("xv6 kernel is booting\n");
    8000036a:	00007517          	auipc	a0,0x7
    8000036e:	cb650513          	addi	a0,a0,-842 # 80007020 <etext+0x20>
    80000372:	7bd040ef          	jal	8000532e <printf>
    printf("\n");
    80000376:	00007517          	auipc	a0,0x7
    8000037a:	ca250513          	addi	a0,a0,-862 # 80007018 <etext+0x18>
    8000037e:	7b1040ef          	jal	8000532e <printf>
    kinit();         // physical page allocator
    80000382:	d4fff0ef          	jal	800000d0 <kinit>
    kvminit();       // create kernel page table
    80000386:	2cc000ef          	jal	80000652 <kvminit>
    kvminithart();   // turn on paging
    8000038a:	03c000ef          	jal	800003c6 <kvminithart>
    procinit();      // process table
    8000038e:	10b000ef          	jal	80000c98 <procinit>
    trapinit();      // trap vectors
    80000392:	4ce010ef          	jal	80001860 <trapinit>
    trapinithart();  // install kernel trap vector
    80000396:	4ee010ef          	jal	80001884 <trapinithart>
    plicinit();      // set up interrupt controller
    8000039a:	554040ef          	jal	800048ee <plicinit>
    plicinithart();  // ask PLIC for device interrupts
    8000039e:	56a040ef          	jal	80004908 <plicinithart>
    binit();         // buffer cache
    800003a2:	413010ef          	jal	80001fb4 <binit>
    iinit();         // inode table
    800003a6:	1ce020ef          	jal	80002574 <iinit>
    fileinit();      // file table
    800003aa:	7bd020ef          	jal	80003366 <fileinit>
    virtio_disk_init(); // emulated hard disk
    800003ae:	64a040ef          	jal	800049f8 <virtio_disk_init>
    userinit();      // first user process
    800003b2:	43f000ef          	jal	80000ff0 <userinit>
    __sync_synchronize();
    800003b6:	0330000f          	fence	rw,rw
    started = 1;
    800003ba:	4785                	li	a5,1
    800003bc:	0000a717          	auipc	a4,0xa
    800003c0:	f0f72a23          	sw	a5,-236(a4) # 8000a2d0 <started>
    800003c4:	b779                	j	80000352 <main+0x3e>

00000000800003c6 <kvminithart>:

// Switch h/w page table register to the kernel's page table,
// and enable paging.
void
kvminithart()
{
    800003c6:	1141                	addi	sp,sp,-16
    800003c8:	e406                	sd	ra,8(sp)
    800003ca:	e022                	sd	s0,0(sp)
    800003cc:	0800                	addi	s0,sp,16
// flush the TLB.
static inline void
sfence_vma()
{
  // the zero, zero means flush all TLB entries.
  asm volatile("sfence.vma zero, zero");
    800003ce:	12000073          	sfence.vma
  // wait for any previous writes to the page table memory to finish.
  sfence_vma();

  w_satp(MAKE_SATP(kernel_pagetable));
    800003d2:	0000a797          	auipc	a5,0xa
    800003d6:	f067b783          	ld	a5,-250(a5) # 8000a2d8 <kernel_pagetable>
    800003da:	83b1                	srli	a5,a5,0xc
    800003dc:	577d                	li	a4,-1
    800003de:	177e                	slli	a4,a4,0x3f
    800003e0:	8fd9                	or	a5,a5,a4
  asm volatile("csrw satp, %0" : : "r" (x));
    800003e2:	18079073          	csrw	satp,a5
  asm volatile("sfence.vma zero, zero");
    800003e6:	12000073          	sfence.vma

  // flush stale entries from the TLB.
  sfence_vma();
}
    800003ea:	60a2                	ld	ra,8(sp)
    800003ec:	6402                	ld	s0,0(sp)
    800003ee:	0141                	addi	sp,sp,16
    800003f0:	8082                	ret

00000000800003f2 <walk>:
//   21..29 -- 9 bits of level-1 index.
//   12..20 -- 9 bits of level-0 index.
//    0..11 -- 12 bits of byte offset within the page.
pte_t *
walk(pagetable_t pagetable, uint64 va, int alloc)
{
    800003f2:	7139                	addi	sp,sp,-64
    800003f4:	fc06                	sd	ra,56(sp)
    800003f6:	f822                	sd	s0,48(sp)
    800003f8:	f426                	sd	s1,40(sp)
    800003fa:	f04a                	sd	s2,32(sp)
    800003fc:	ec4e                	sd	s3,24(sp)
    800003fe:	e852                	sd	s4,16(sp)
    80000400:	e456                	sd	s5,8(sp)
    80000402:	e05a                	sd	s6,0(sp)
    80000404:	0080                	addi	s0,sp,64
    80000406:	84aa                	mv	s1,a0
    80000408:	89ae                	mv	s3,a1
    8000040a:	8b32                	mv	s6,a2
  if(va >= MAXVA)
    8000040c:	57fd                	li	a5,-1
    8000040e:	83e9                	srli	a5,a5,0x1a
    80000410:	4a79                	li	s4,30
    panic("walk");

  for(int level = 2; level > 0; level--) {
    80000412:	4ab1                	li	s5,12
  if(va >= MAXVA)
    80000414:	04b7e263          	bltu	a5,a1,80000458 <walk+0x66>
    pte_t *pte = &pagetable[PX(level, va)];
    80000418:	0149d933          	srl	s2,s3,s4
    8000041c:	1ff97913          	andi	s2,s2,511
    80000420:	090e                	slli	s2,s2,0x3
    80000422:	9926                	add	s2,s2,s1
    if(*pte & PTE_V) {
    80000424:	00093483          	ld	s1,0(s2)
    80000428:	0014f793          	andi	a5,s1,1
    8000042c:	cf85                	beqz	a5,80000464 <walk+0x72>
      pagetable = (pagetable_t)PTE2PA(*pte);
    8000042e:	80a9                	srli	s1,s1,0xa
    80000430:	04b2                	slli	s1,s1,0xc
  for(int level = 2; level > 0; level--) {
    80000432:	3a5d                	addiw	s4,s4,-9
    80000434:	ff5a12e3          	bne	s4,s5,80000418 <walk+0x26>
        return 0;
      memset(pagetable, 0, PGSIZE);
      *pte = PA2PTE(pagetable) | PTE_V;
    }
  }
  return &pagetable[PX(0, va)];
    80000438:	00c9d513          	srli	a0,s3,0xc
    8000043c:	1ff57513          	andi	a0,a0,511
    80000440:	050e                	slli	a0,a0,0x3
    80000442:	9526                	add	a0,a0,s1
}
    80000444:	70e2                	ld	ra,56(sp)
    80000446:	7442                	ld	s0,48(sp)
    80000448:	74a2                	ld	s1,40(sp)
    8000044a:	7902                	ld	s2,32(sp)
    8000044c:	69e2                	ld	s3,24(sp)
    8000044e:	6a42                	ld	s4,16(sp)
    80000450:	6aa2                	ld	s5,8(sp)
    80000452:	6b02                	ld	s6,0(sp)
    80000454:	6121                	addi	sp,sp,64
    80000456:	8082                	ret
    panic("walk");
    80000458:	00007517          	auipc	a0,0x7
    8000045c:	bf850513          	addi	a0,a0,-1032 # 80007050 <etext+0x50>
    80000460:	1de050ef          	jal	8000563e <panic>
      if(!alloc || (pagetable = (pde_t*)kalloc()) == 0)
    80000464:	020b0263          	beqz	s6,80000488 <walk+0x96>
    80000468:	c9dff0ef          	jal	80000104 <kalloc>
    8000046c:	84aa                	mv	s1,a0
    8000046e:	d979                	beqz	a0,80000444 <walk+0x52>
      memset(pagetable, 0, PGSIZE);
    80000470:	6605                	lui	a2,0x1
    80000472:	4581                	li	a1,0
    80000474:	cebff0ef          	jal	8000015e <memset>
      *pte = PA2PTE(pagetable) | PTE_V;
    80000478:	00c4d793          	srli	a5,s1,0xc
    8000047c:	07aa                	slli	a5,a5,0xa
    8000047e:	0017e793          	ori	a5,a5,1
    80000482:	00f93023          	sd	a5,0(s2)
    80000486:	b775                	j	80000432 <walk+0x40>
        return 0;
    80000488:	4501                	li	a0,0
    8000048a:	bf6d                	j	80000444 <walk+0x52>

000000008000048c <walkaddr>:
walkaddr(pagetable_t pagetable, uint64 va)
{
  pte_t *pte;
  uint64 pa;

  if(va >= MAXVA)
    8000048c:	57fd                	li	a5,-1
    8000048e:	83e9                	srli	a5,a5,0x1a
    80000490:	00b7f463          	bgeu	a5,a1,80000498 <walkaddr+0xc>
    return 0;
    80000494:	4501                	li	a0,0
    return 0;
  if((*pte & PTE_U) == 0)
    return 0;
  pa = PTE2PA(*pte);
  return pa;
}
    80000496:	8082                	ret
{
    80000498:	1141                	addi	sp,sp,-16
    8000049a:	e406                	sd	ra,8(sp)
    8000049c:	e022                	sd	s0,0(sp)
    8000049e:	0800                	addi	s0,sp,16
  pte = walk(pagetable, va, 0);
    800004a0:	4601                	li	a2,0
    800004a2:	f51ff0ef          	jal	800003f2 <walk>
  if(pte == 0)
    800004a6:	c901                	beqz	a0,800004b6 <walkaddr+0x2a>
  if((*pte & PTE_V) == 0)
    800004a8:	611c                	ld	a5,0(a0)
  if((*pte & PTE_U) == 0)
    800004aa:	0117f693          	andi	a3,a5,17
    800004ae:	4745                	li	a4,17
    return 0;
    800004b0:	4501                	li	a0,0
  if((*pte & PTE_U) == 0)
    800004b2:	00e68663          	beq	a3,a4,800004be <walkaddr+0x32>
}
    800004b6:	60a2                	ld	ra,8(sp)
    800004b8:	6402                	ld	s0,0(sp)
    800004ba:	0141                	addi	sp,sp,16
    800004bc:	8082                	ret
  pa = PTE2PA(*pte);
    800004be:	83a9                	srli	a5,a5,0xa
    800004c0:	00c79513          	slli	a0,a5,0xc
  return pa;
    800004c4:	bfcd                	j	800004b6 <walkaddr+0x2a>

00000000800004c6 <mappages>:
// va and size MUST be page-aligned.
// Returns 0 on success, -1 if walk() couldn't
// allocate a needed page-table page.
int
mappages(pagetable_t pagetable, uint64 va, uint64 size, uint64 pa, int perm)
{
    800004c6:	715d                	addi	sp,sp,-80
    800004c8:	e486                	sd	ra,72(sp)
    800004ca:	e0a2                	sd	s0,64(sp)
    800004cc:	fc26                	sd	s1,56(sp)
    800004ce:	f84a                	sd	s2,48(sp)
    800004d0:	f44e                	sd	s3,40(sp)
    800004d2:	f052                	sd	s4,32(sp)
    800004d4:	ec56                	sd	s5,24(sp)
    800004d6:	e85a                	sd	s6,16(sp)
    800004d8:	e45e                	sd	s7,8(sp)
    800004da:	0880                	addi	s0,sp,80
  uint64 a, last;
  pte_t *pte;

  if((va % PGSIZE) != 0)
    800004dc:	03459793          	slli	a5,a1,0x34
    800004e0:	eba1                	bnez	a5,80000530 <mappages+0x6a>
    800004e2:	8a2a                	mv	s4,a0
    800004e4:	8aba                	mv	s5,a4
    panic("mappages: va not aligned");

  if((size % PGSIZE) != 0)
    800004e6:	03461793          	slli	a5,a2,0x34
    800004ea:	eba9                	bnez	a5,8000053c <mappages+0x76>
    panic("mappages: size not aligned");

  if(size == 0)
    800004ec:	ce31                	beqz	a2,80000548 <mappages+0x82>
    panic("mappages: size");
  
  a = va;
  last = va + size - PGSIZE;
    800004ee:	80060613          	addi	a2,a2,-2048 # 800 <_entry-0x7ffff800>
    800004f2:	80060613          	addi	a2,a2,-2048
    800004f6:	00b60933          	add	s2,a2,a1
  a = va;
    800004fa:	84ae                	mv	s1,a1
  for(;;){
    if((pte = walk(pagetable, a, 1)) == 0)
    800004fc:	4b05                	li	s6,1
    800004fe:	40b689b3          	sub	s3,a3,a1
    if(*pte & PTE_V)
      panic("mappages: remap");
    *pte = PA2PTE(pa) | perm | PTE_V;
    if(a == last)
      break;
    a += PGSIZE;
    80000502:	6b85                	lui	s7,0x1
    if((pte = walk(pagetable, a, 1)) == 0)
    80000504:	865a                	mv	a2,s6
    80000506:	85a6                	mv	a1,s1
    80000508:	8552                	mv	a0,s4
    8000050a:	ee9ff0ef          	jal	800003f2 <walk>
    8000050e:	c929                	beqz	a0,80000560 <mappages+0x9a>
    if(*pte & PTE_V)
    80000510:	611c                	ld	a5,0(a0)
    80000512:	8b85                	andi	a5,a5,1
    80000514:	e3a1                	bnez	a5,80000554 <mappages+0x8e>
    *pte = PA2PTE(pa) | perm | PTE_V;
    80000516:	013487b3          	add	a5,s1,s3
    8000051a:	83b1                	srli	a5,a5,0xc
    8000051c:	07aa                	slli	a5,a5,0xa
    8000051e:	0157e7b3          	or	a5,a5,s5
    80000522:	0017e793          	ori	a5,a5,1
    80000526:	e11c                	sd	a5,0(a0)
    if(a == last)
    80000528:	05248863          	beq	s1,s2,80000578 <mappages+0xb2>
    a += PGSIZE;
    8000052c:	94de                	add	s1,s1,s7
    if((pte = walk(pagetable, a, 1)) == 0)
    8000052e:	bfd9                	j	80000504 <mappages+0x3e>
    panic("mappages: va not aligned");
    80000530:	00007517          	auipc	a0,0x7
    80000534:	b2850513          	addi	a0,a0,-1240 # 80007058 <etext+0x58>
    80000538:	106050ef          	jal	8000563e <panic>
    panic("mappages: size not aligned");
    8000053c:	00007517          	auipc	a0,0x7
    80000540:	b3c50513          	addi	a0,a0,-1220 # 80007078 <etext+0x78>
    80000544:	0fa050ef          	jal	8000563e <panic>
    panic("mappages: size");
    80000548:	00007517          	auipc	a0,0x7
    8000054c:	b5050513          	addi	a0,a0,-1200 # 80007098 <etext+0x98>
    80000550:	0ee050ef          	jal	8000563e <panic>
      panic("mappages: remap");
    80000554:	00007517          	auipc	a0,0x7
    80000558:	b5450513          	addi	a0,a0,-1196 # 800070a8 <etext+0xa8>
    8000055c:	0e2050ef          	jal	8000563e <panic>
      return -1;
    80000560:	557d                	li	a0,-1
    pa += PGSIZE;
  }
  return 0;
}
    80000562:	60a6                	ld	ra,72(sp)
    80000564:	6406                	ld	s0,64(sp)
    80000566:	74e2                	ld	s1,56(sp)
    80000568:	7942                	ld	s2,48(sp)
    8000056a:	79a2                	ld	s3,40(sp)
    8000056c:	7a02                	ld	s4,32(sp)
    8000056e:	6ae2                	ld	s5,24(sp)
    80000570:	6b42                	ld	s6,16(sp)
    80000572:	6ba2                	ld	s7,8(sp)
    80000574:	6161                	addi	sp,sp,80
    80000576:	8082                	ret
  return 0;
    80000578:	4501                	li	a0,0
    8000057a:	b7e5                	j	80000562 <mappages+0x9c>

000000008000057c <kvmmap>:
{
    8000057c:	1141                	addi	sp,sp,-16
    8000057e:	e406                	sd	ra,8(sp)
    80000580:	e022                	sd	s0,0(sp)
    80000582:	0800                	addi	s0,sp,16
    80000584:	87b6                	mv	a5,a3
  if(mappages(kpgtbl, va, sz, pa, perm) != 0)
    80000586:	86b2                	mv	a3,a2
    80000588:	863e                	mv	a2,a5
    8000058a:	f3dff0ef          	jal	800004c6 <mappages>
    8000058e:	e509                	bnez	a0,80000598 <kvmmap+0x1c>
}
    80000590:	60a2                	ld	ra,8(sp)
    80000592:	6402                	ld	s0,0(sp)
    80000594:	0141                	addi	sp,sp,16
    80000596:	8082                	ret
    panic("kvmmap");
    80000598:	00007517          	auipc	a0,0x7
    8000059c:	b2050513          	addi	a0,a0,-1248 # 800070b8 <etext+0xb8>
    800005a0:	09e050ef          	jal	8000563e <panic>

00000000800005a4 <kvmmake>:
{
    800005a4:	1101                	addi	sp,sp,-32
    800005a6:	ec06                	sd	ra,24(sp)
    800005a8:	e822                	sd	s0,16(sp)
    800005aa:	e426                	sd	s1,8(sp)
    800005ac:	1000                	addi	s0,sp,32
  kpgtbl = (pagetable_t) kalloc();
    800005ae:	b57ff0ef          	jal	80000104 <kalloc>
    800005b2:	84aa                	mv	s1,a0
  memset(kpgtbl, 0, PGSIZE);
    800005b4:	6605                	lui	a2,0x1
    800005b6:	4581                	li	a1,0
    800005b8:	ba7ff0ef          	jal	8000015e <memset>
  kvmmap(kpgtbl, UART0, UART0, PGSIZE, PTE_R | PTE_W);
    800005bc:	4719                	li	a4,6
    800005be:	6685                	lui	a3,0x1
    800005c0:	10000637          	lui	a2,0x10000
    800005c4:	85b2                	mv	a1,a2
    800005c6:	8526                	mv	a0,s1
    800005c8:	fb5ff0ef          	jal	8000057c <kvmmap>
  kvmmap(kpgtbl, VIRTIO0, VIRTIO0, PGSIZE, PTE_R | PTE_W);
    800005cc:	4719                	li	a4,6
    800005ce:	6685                	lui	a3,0x1
    800005d0:	10001637          	lui	a2,0x10001
    800005d4:	85b2                	mv	a1,a2
    800005d6:	8526                	mv	a0,s1
    800005d8:	fa5ff0ef          	jal	8000057c <kvmmap>
  kvmmap(kpgtbl, PLIC, PLIC, 0x4000000, PTE_R | PTE_W);
    800005dc:	4719                	li	a4,6
    800005de:	040006b7          	lui	a3,0x4000
    800005e2:	0c000637          	lui	a2,0xc000
    800005e6:	85b2                	mv	a1,a2
    800005e8:	8526                	mv	a0,s1
    800005ea:	f93ff0ef          	jal	8000057c <kvmmap>
  kvmmap(kpgtbl, KERNBASE, KERNBASE, (uint64)etext-KERNBASE, PTE_R | PTE_X);
    800005ee:	4729                	li	a4,10
    800005f0:	80007697          	auipc	a3,0x80007
    800005f4:	a1068693          	addi	a3,a3,-1520 # 7000 <_entry-0x7fff9000>
    800005f8:	4605                	li	a2,1
    800005fa:	067e                	slli	a2,a2,0x1f
    800005fc:	85b2                	mv	a1,a2
    800005fe:	8526                	mv	a0,s1
    80000600:	f7dff0ef          	jal	8000057c <kvmmap>
  kvmmap(kpgtbl, (uint64)etext, (uint64)etext, PHYSTOP-(uint64)etext, PTE_R | PTE_W);
    80000604:	4719                	li	a4,6
    80000606:	00007697          	auipc	a3,0x7
    8000060a:	9fa68693          	addi	a3,a3,-1542 # 80007000 <etext>
    8000060e:	47c5                	li	a5,17
    80000610:	07ee                	slli	a5,a5,0x1b
    80000612:	40d786b3          	sub	a3,a5,a3
    80000616:	00007617          	auipc	a2,0x7
    8000061a:	9ea60613          	addi	a2,a2,-1558 # 80007000 <etext>
    8000061e:	85b2                	mv	a1,a2
    80000620:	8526                	mv	a0,s1
    80000622:	f5bff0ef          	jal	8000057c <kvmmap>
  kvmmap(kpgtbl, TRAMPOLINE, (uint64)trampoline, PGSIZE, PTE_R | PTE_X);
    80000626:	4729                	li	a4,10
    80000628:	6685                	lui	a3,0x1
    8000062a:	00006617          	auipc	a2,0x6
    8000062e:	9d660613          	addi	a2,a2,-1578 # 80006000 <_trampoline>
    80000632:	040005b7          	lui	a1,0x4000
    80000636:	15fd                	addi	a1,a1,-1 # 3ffffff <_entry-0x7c000001>
    80000638:	05b2                	slli	a1,a1,0xc
    8000063a:	8526                	mv	a0,s1
    8000063c:	f41ff0ef          	jal	8000057c <kvmmap>
  proc_mapstacks(kpgtbl);
    80000640:	8526                	mv	a0,s1
    80000642:	5b2000ef          	jal	80000bf4 <proc_mapstacks>
}
    80000646:	8526                	mv	a0,s1
    80000648:	60e2                	ld	ra,24(sp)
    8000064a:	6442                	ld	s0,16(sp)
    8000064c:	64a2                	ld	s1,8(sp)
    8000064e:	6105                	addi	sp,sp,32
    80000650:	8082                	ret

0000000080000652 <kvminit>:
{
    80000652:	1141                	addi	sp,sp,-16
    80000654:	e406                	sd	ra,8(sp)
    80000656:	e022                	sd	s0,0(sp)
    80000658:	0800                	addi	s0,sp,16
  kernel_pagetable = kvmmake();
    8000065a:	f4bff0ef          	jal	800005a4 <kvmmake>
    8000065e:	0000a797          	auipc	a5,0xa
    80000662:	c6a7bd23          	sd	a0,-902(a5) # 8000a2d8 <kernel_pagetable>
}
    80000666:	60a2                	ld	ra,8(sp)
    80000668:	6402                	ld	s0,0(sp)
    8000066a:	0141                	addi	sp,sp,16
    8000066c:	8082                	ret

000000008000066e <uvmunmap>:
// Remove npages of mappings starting from va. va must be
// page-aligned. The mappings must exist.
// Optionally free the physical memory.
void
uvmunmap(pagetable_t pagetable, uint64 va, uint64 npages, int do_free)
{
    8000066e:	715d                	addi	sp,sp,-80
    80000670:	e486                	sd	ra,72(sp)
    80000672:	e0a2                	sd	s0,64(sp)
    80000674:	0880                	addi	s0,sp,80
  uint64 a;
  pte_t *pte;

  if((va % PGSIZE) != 0)
    80000676:	03459793          	slli	a5,a1,0x34
    8000067a:	e39d                	bnez	a5,800006a0 <uvmunmap+0x32>
    8000067c:	f84a                	sd	s2,48(sp)
    8000067e:	f44e                	sd	s3,40(sp)
    80000680:	f052                	sd	s4,32(sp)
    80000682:	ec56                	sd	s5,24(sp)
    80000684:	e85a                	sd	s6,16(sp)
    80000686:	e45e                	sd	s7,8(sp)
    80000688:	8a2a                	mv	s4,a0
    8000068a:	892e                	mv	s2,a1
    8000068c:	8ab6                	mv	s5,a3
    panic("uvmunmap: not aligned");

  for(a = va; a < va + npages*PGSIZE; a += PGSIZE){
    8000068e:	0632                	slli	a2,a2,0xc
    80000690:	00b609b3          	add	s3,a2,a1
    if((pte = walk(pagetable, a, 0)) == 0)
      panic("uvmunmap: walk");
    if((*pte & PTE_V) == 0)
      panic("uvmunmap: not mapped");
    if(PTE_FLAGS(*pte) == PTE_V)
    80000694:	4b85                	li	s7,1
  for(a = va; a < va + npages*PGSIZE; a += PGSIZE){
    80000696:	6b05                	lui	s6,0x1
    80000698:	0735ff63          	bgeu	a1,s3,80000716 <uvmunmap+0xa8>
    8000069c:	fc26                	sd	s1,56(sp)
    8000069e:	a0a9                	j	800006e8 <uvmunmap+0x7a>
    800006a0:	fc26                	sd	s1,56(sp)
    800006a2:	f84a                	sd	s2,48(sp)
    800006a4:	f44e                	sd	s3,40(sp)
    800006a6:	f052                	sd	s4,32(sp)
    800006a8:	ec56                	sd	s5,24(sp)
    800006aa:	e85a                	sd	s6,16(sp)
    800006ac:	e45e                	sd	s7,8(sp)
    panic("uvmunmap: not aligned");
    800006ae:	00007517          	auipc	a0,0x7
    800006b2:	a1250513          	addi	a0,a0,-1518 # 800070c0 <etext+0xc0>
    800006b6:	789040ef          	jal	8000563e <panic>
      panic("uvmunmap: walk");
    800006ba:	00007517          	auipc	a0,0x7
    800006be:	a1e50513          	addi	a0,a0,-1506 # 800070d8 <etext+0xd8>
    800006c2:	77d040ef          	jal	8000563e <panic>
      panic("uvmunmap: not mapped");
    800006c6:	00007517          	auipc	a0,0x7
    800006ca:	a2250513          	addi	a0,a0,-1502 # 800070e8 <etext+0xe8>
    800006ce:	771040ef          	jal	8000563e <panic>
      panic("uvmunmap: not a leaf");
    800006d2:	00007517          	auipc	a0,0x7
    800006d6:	a2e50513          	addi	a0,a0,-1490 # 80007100 <etext+0x100>
    800006da:	765040ef          	jal	8000563e <panic>
    if(do_free){
      uint64 pa = PTE2PA(*pte);
      kfree((void*)pa);
    }
    *pte = 0;
    800006de:	0004b023          	sd	zero,0(s1)
  for(a = va; a < va + npages*PGSIZE; a += PGSIZE){
    800006e2:	995a                	add	s2,s2,s6
    800006e4:	03397863          	bgeu	s2,s3,80000714 <uvmunmap+0xa6>
    if((pte = walk(pagetable, a, 0)) == 0)
    800006e8:	4601                	li	a2,0
    800006ea:	85ca                	mv	a1,s2
    800006ec:	8552                	mv	a0,s4
    800006ee:	d05ff0ef          	jal	800003f2 <walk>
    800006f2:	84aa                	mv	s1,a0
    800006f4:	d179                	beqz	a0,800006ba <uvmunmap+0x4c>
    if((*pte & PTE_V) == 0)
    800006f6:	6108                	ld	a0,0(a0)
    800006f8:	00157793          	andi	a5,a0,1
    800006fc:	d7e9                	beqz	a5,800006c6 <uvmunmap+0x58>
    if(PTE_FLAGS(*pte) == PTE_V)
    800006fe:	3ff57793          	andi	a5,a0,1023
    80000702:	fd7788e3          	beq	a5,s7,800006d2 <uvmunmap+0x64>
    if(do_free){
    80000706:	fc0a8ce3          	beqz	s5,800006de <uvmunmap+0x70>
      uint64 pa = PTE2PA(*pte);
    8000070a:	8129                	srli	a0,a0,0xa
      kfree((void*)pa);
    8000070c:	0532                	slli	a0,a0,0xc
    8000070e:	90fff0ef          	jal	8000001c <kfree>
    80000712:	b7f1                	j	800006de <uvmunmap+0x70>
    80000714:	74e2                	ld	s1,56(sp)
    80000716:	7942                	ld	s2,48(sp)
    80000718:	79a2                	ld	s3,40(sp)
    8000071a:	7a02                	ld	s4,32(sp)
    8000071c:	6ae2                	ld	s5,24(sp)
    8000071e:	6b42                	ld	s6,16(sp)
    80000720:	6ba2                	ld	s7,8(sp)
  }
}
    80000722:	60a6                	ld	ra,72(sp)
    80000724:	6406                	ld	s0,64(sp)
    80000726:	6161                	addi	sp,sp,80
    80000728:	8082                	ret

000000008000072a <uvmcreate>:

// create an empty user page table.
// returns 0 if out of memory.
pagetable_t
uvmcreate()
{
    8000072a:	1101                	addi	sp,sp,-32
    8000072c:	ec06                	sd	ra,24(sp)
    8000072e:	e822                	sd	s0,16(sp)
    80000730:	e426                	sd	s1,8(sp)
    80000732:	1000                	addi	s0,sp,32
  pagetable_t pagetable;
  pagetable = (pagetable_t) kalloc();
    80000734:	9d1ff0ef          	jal	80000104 <kalloc>
    80000738:	84aa                	mv	s1,a0
  if(pagetable == 0)
    8000073a:	c509                	beqz	a0,80000744 <uvmcreate+0x1a>
    return 0;
  memset(pagetable, 0, PGSIZE);
    8000073c:	6605                	lui	a2,0x1
    8000073e:	4581                	li	a1,0
    80000740:	a1fff0ef          	jal	8000015e <memset>
  return pagetable;
}
    80000744:	8526                	mv	a0,s1
    80000746:	60e2                	ld	ra,24(sp)
    80000748:	6442                	ld	s0,16(sp)
    8000074a:	64a2                	ld	s1,8(sp)
    8000074c:	6105                	addi	sp,sp,32
    8000074e:	8082                	ret

0000000080000750 <uvmfirst>:
// Load the user initcode into address 0 of pagetable,
// for the very first process.
// sz must be less than a page.
void
uvmfirst(pagetable_t pagetable, uchar *src, uint sz)
{
    80000750:	7179                	addi	sp,sp,-48
    80000752:	f406                	sd	ra,40(sp)
    80000754:	f022                	sd	s0,32(sp)
    80000756:	ec26                	sd	s1,24(sp)
    80000758:	e84a                	sd	s2,16(sp)
    8000075a:	e44e                	sd	s3,8(sp)
    8000075c:	e052                	sd	s4,0(sp)
    8000075e:	1800                	addi	s0,sp,48
  char *mem;

  if(sz >= PGSIZE)
    80000760:	6785                	lui	a5,0x1
    80000762:	04f67063          	bgeu	a2,a5,800007a2 <uvmfirst+0x52>
    80000766:	89aa                	mv	s3,a0
    80000768:	8a2e                	mv	s4,a1
    8000076a:	84b2                	mv	s1,a2
    panic("uvmfirst: more than a page");
  mem = kalloc();
    8000076c:	999ff0ef          	jal	80000104 <kalloc>
    80000770:	892a                	mv	s2,a0
  memset(mem, 0, PGSIZE);
    80000772:	6605                	lui	a2,0x1
    80000774:	4581                	li	a1,0
    80000776:	9e9ff0ef          	jal	8000015e <memset>
  mappages(pagetable, 0, PGSIZE, (uint64)mem, PTE_W|PTE_R|PTE_X|PTE_U);
    8000077a:	4779                	li	a4,30
    8000077c:	86ca                	mv	a3,s2
    8000077e:	6605                	lui	a2,0x1
    80000780:	4581                	li	a1,0
    80000782:	854e                	mv	a0,s3
    80000784:	d43ff0ef          	jal	800004c6 <mappages>
  memmove(mem, src, sz);
    80000788:	8626                	mv	a2,s1
    8000078a:	85d2                	mv	a1,s4
    8000078c:	854a                	mv	a0,s2
    8000078e:	a31ff0ef          	jal	800001be <memmove>
}
    80000792:	70a2                	ld	ra,40(sp)
    80000794:	7402                	ld	s0,32(sp)
    80000796:	64e2                	ld	s1,24(sp)
    80000798:	6942                	ld	s2,16(sp)
    8000079a:	69a2                	ld	s3,8(sp)
    8000079c:	6a02                	ld	s4,0(sp)
    8000079e:	6145                	addi	sp,sp,48
    800007a0:	8082                	ret
    panic("uvmfirst: more than a page");
    800007a2:	00007517          	auipc	a0,0x7
    800007a6:	97650513          	addi	a0,a0,-1674 # 80007118 <etext+0x118>
    800007aa:	695040ef          	jal	8000563e <panic>

00000000800007ae <uvmdealloc>:
// newsz.  oldsz and newsz need not be page-aligned, nor does newsz
// need to be less than oldsz.  oldsz can be larger than the actual
// process size.  Returns the new process size.
uint64
uvmdealloc(pagetable_t pagetable, uint64 oldsz, uint64 newsz)
{
    800007ae:	1101                	addi	sp,sp,-32
    800007b0:	ec06                	sd	ra,24(sp)
    800007b2:	e822                	sd	s0,16(sp)
    800007b4:	e426                	sd	s1,8(sp)
    800007b6:	1000                	addi	s0,sp,32
  if(newsz >= oldsz)
    return oldsz;
    800007b8:	84ae                	mv	s1,a1
  if(newsz >= oldsz)
    800007ba:	00b67d63          	bgeu	a2,a1,800007d4 <uvmdealloc+0x26>
    800007be:	84b2                	mv	s1,a2

  if(PGROUNDUP(newsz) < PGROUNDUP(oldsz)){
    800007c0:	6785                	lui	a5,0x1
    800007c2:	17fd                	addi	a5,a5,-1 # fff <_entry-0x7ffff001>
    800007c4:	00f60733          	add	a4,a2,a5
    800007c8:	76fd                	lui	a3,0xfffff
    800007ca:	8f75                	and	a4,a4,a3
    800007cc:	97ae                	add	a5,a5,a1
    800007ce:	8ff5                	and	a5,a5,a3
    800007d0:	00f76863          	bltu	a4,a5,800007e0 <uvmdealloc+0x32>
    int npages = (PGROUNDUP(oldsz) - PGROUNDUP(newsz)) / PGSIZE;
    uvmunmap(pagetable, PGROUNDUP(newsz), npages, 1);
  }

  return newsz;
}
    800007d4:	8526                	mv	a0,s1
    800007d6:	60e2                	ld	ra,24(sp)
    800007d8:	6442                	ld	s0,16(sp)
    800007da:	64a2                	ld	s1,8(sp)
    800007dc:	6105                	addi	sp,sp,32
    800007de:	8082                	ret
    int npages = (PGROUNDUP(oldsz) - PGROUNDUP(newsz)) / PGSIZE;
    800007e0:	8f99                	sub	a5,a5,a4
    800007e2:	83b1                	srli	a5,a5,0xc
    uvmunmap(pagetable, PGROUNDUP(newsz), npages, 1);
    800007e4:	4685                	li	a3,1
    800007e6:	0007861b          	sext.w	a2,a5
    800007ea:	85ba                	mv	a1,a4
    800007ec:	e83ff0ef          	jal	8000066e <uvmunmap>
    800007f0:	b7d5                	j	800007d4 <uvmdealloc+0x26>

00000000800007f2 <uvmalloc>:
  if(newsz < oldsz)
    800007f2:	0ab66163          	bltu	a2,a1,80000894 <uvmalloc+0xa2>
{
    800007f6:	715d                	addi	sp,sp,-80
    800007f8:	e486                	sd	ra,72(sp)
    800007fa:	e0a2                	sd	s0,64(sp)
    800007fc:	f84a                	sd	s2,48(sp)
    800007fe:	f052                	sd	s4,32(sp)
    80000800:	ec56                	sd	s5,24(sp)
    80000802:	e45e                	sd	s7,8(sp)
    80000804:	0880                	addi	s0,sp,80
    80000806:	8aaa                	mv	s5,a0
    80000808:	8a32                	mv	s4,a2
  oldsz = PGROUNDUP(oldsz);
    8000080a:	6785                	lui	a5,0x1
    8000080c:	17fd                	addi	a5,a5,-1 # fff <_entry-0x7ffff001>
    8000080e:	95be                	add	a1,a1,a5
    80000810:	77fd                	lui	a5,0xfffff
    80000812:	00f5f933          	and	s2,a1,a5
    80000816:	8bca                	mv	s7,s2
  for(a = oldsz; a < newsz; a += PGSIZE){
    80000818:	08c97063          	bgeu	s2,a2,80000898 <uvmalloc+0xa6>
    8000081c:	fc26                	sd	s1,56(sp)
    8000081e:	f44e                	sd	s3,40(sp)
    80000820:	e85a                	sd	s6,16(sp)
    memset(mem, 0, PGSIZE);
    80000822:	6985                	lui	s3,0x1
    if(mappages(pagetable, a, PGSIZE, (uint64)mem, PTE_R|PTE_U|xperm) != 0){
    80000824:	0126eb13          	ori	s6,a3,18
    mem = kalloc();
    80000828:	8ddff0ef          	jal	80000104 <kalloc>
    8000082c:	84aa                	mv	s1,a0
    if(mem == 0){
    8000082e:	c50d                	beqz	a0,80000858 <uvmalloc+0x66>
    memset(mem, 0, PGSIZE);
    80000830:	864e                	mv	a2,s3
    80000832:	4581                	li	a1,0
    80000834:	92bff0ef          	jal	8000015e <memset>
    if(mappages(pagetable, a, PGSIZE, (uint64)mem, PTE_R|PTE_U|xperm) != 0){
    80000838:	875a                	mv	a4,s6
    8000083a:	86a6                	mv	a3,s1
    8000083c:	864e                	mv	a2,s3
    8000083e:	85ca                	mv	a1,s2
    80000840:	8556                	mv	a0,s5
    80000842:	c85ff0ef          	jal	800004c6 <mappages>
    80000846:	e915                	bnez	a0,8000087a <uvmalloc+0x88>
  for(a = oldsz; a < newsz; a += PGSIZE){
    80000848:	994e                	add	s2,s2,s3
    8000084a:	fd496fe3          	bltu	s2,s4,80000828 <uvmalloc+0x36>
  return newsz;
    8000084e:	8552                	mv	a0,s4
    80000850:	74e2                	ld	s1,56(sp)
    80000852:	79a2                	ld	s3,40(sp)
    80000854:	6b42                	ld	s6,16(sp)
    80000856:	a811                	j	8000086a <uvmalloc+0x78>
      uvmdealloc(pagetable, a, oldsz);
    80000858:	865e                	mv	a2,s7
    8000085a:	85ca                	mv	a1,s2
    8000085c:	8556                	mv	a0,s5
    8000085e:	f51ff0ef          	jal	800007ae <uvmdealloc>
      return 0;
    80000862:	4501                	li	a0,0
    80000864:	74e2                	ld	s1,56(sp)
    80000866:	79a2                	ld	s3,40(sp)
    80000868:	6b42                	ld	s6,16(sp)
}
    8000086a:	60a6                	ld	ra,72(sp)
    8000086c:	6406                	ld	s0,64(sp)
    8000086e:	7942                	ld	s2,48(sp)
    80000870:	7a02                	ld	s4,32(sp)
    80000872:	6ae2                	ld	s5,24(sp)
    80000874:	6ba2                	ld	s7,8(sp)
    80000876:	6161                	addi	sp,sp,80
    80000878:	8082                	ret
      kfree(mem);
    8000087a:	8526                	mv	a0,s1
    8000087c:	fa0ff0ef          	jal	8000001c <kfree>
      uvmdealloc(pagetable, a, oldsz);
    80000880:	865e                	mv	a2,s7
    80000882:	85ca                	mv	a1,s2
    80000884:	8556                	mv	a0,s5
    80000886:	f29ff0ef          	jal	800007ae <uvmdealloc>
      return 0;
    8000088a:	4501                	li	a0,0
    8000088c:	74e2                	ld	s1,56(sp)
    8000088e:	79a2                	ld	s3,40(sp)
    80000890:	6b42                	ld	s6,16(sp)
    80000892:	bfe1                	j	8000086a <uvmalloc+0x78>
    return oldsz;
    80000894:	852e                	mv	a0,a1
}
    80000896:	8082                	ret
  return newsz;
    80000898:	8532                	mv	a0,a2
    8000089a:	bfc1                	j	8000086a <uvmalloc+0x78>

000000008000089c <freewalk>:

// Recursively free page-table pages.
// All leaf mappings must already have been removed.
void
freewalk(pagetable_t pagetable)
{
    8000089c:	7179                	addi	sp,sp,-48
    8000089e:	f406                	sd	ra,40(sp)
    800008a0:	f022                	sd	s0,32(sp)
    800008a2:	ec26                	sd	s1,24(sp)
    800008a4:	e84a                	sd	s2,16(sp)
    800008a6:	e44e                	sd	s3,8(sp)
    800008a8:	1800                	addi	s0,sp,48
    800008aa:	89aa                	mv	s3,a0
  // there are 2^9 = 512 PTEs in a page table.
  for(int i = 0; i < 512; i++){
    800008ac:	84aa                	mv	s1,a0
    800008ae:	6905                	lui	s2,0x1
    800008b0:	992a                	add	s2,s2,a0
    800008b2:	a811                	j	800008c6 <freewalk+0x2a>
      // this PTE points to a lower-level page table.
      uint64 child = PTE2PA(pte);
      freewalk((pagetable_t)child);
      pagetable[i] = 0;
    } else if(pte & PTE_V){
      panic("freewalk: leaf");
    800008b4:	00007517          	auipc	a0,0x7
    800008b8:	88450513          	addi	a0,a0,-1916 # 80007138 <etext+0x138>
    800008bc:	583040ef          	jal	8000563e <panic>
  for(int i = 0; i < 512; i++){
    800008c0:	04a1                	addi	s1,s1,8
    800008c2:	03248163          	beq	s1,s2,800008e4 <freewalk+0x48>
    pte_t pte = pagetable[i];
    800008c6:	609c                	ld	a5,0(s1)
    if((pte & PTE_V) && (pte & (PTE_R|PTE_W|PTE_X)) == 0){
    800008c8:	0017f713          	andi	a4,a5,1
    800008cc:	db75                	beqz	a4,800008c0 <freewalk+0x24>
    800008ce:	00e7f713          	andi	a4,a5,14
    800008d2:	f36d                	bnez	a4,800008b4 <freewalk+0x18>
      uint64 child = PTE2PA(pte);
    800008d4:	83a9                	srli	a5,a5,0xa
      freewalk((pagetable_t)child);
    800008d6:	00c79513          	slli	a0,a5,0xc
    800008da:	fc3ff0ef          	jal	8000089c <freewalk>
      pagetable[i] = 0;
    800008de:	0004b023          	sd	zero,0(s1)
    if((pte & PTE_V) && (pte & (PTE_R|PTE_W|PTE_X)) == 0){
    800008e2:	bff9                	j	800008c0 <freewalk+0x24>
    }
  }
  kfree((void*)pagetable);
    800008e4:	854e                	mv	a0,s3
    800008e6:	f36ff0ef          	jal	8000001c <kfree>
}
    800008ea:	70a2                	ld	ra,40(sp)
    800008ec:	7402                	ld	s0,32(sp)
    800008ee:	64e2                	ld	s1,24(sp)
    800008f0:	6942                	ld	s2,16(sp)
    800008f2:	69a2                	ld	s3,8(sp)
    800008f4:	6145                	addi	sp,sp,48
    800008f6:	8082                	ret

00000000800008f8 <uvmfree>:

// Free user memory pages,
// then free page-table pages.
void
uvmfree(pagetable_t pagetable, uint64 sz)
{
    800008f8:	1101                	addi	sp,sp,-32
    800008fa:	ec06                	sd	ra,24(sp)
    800008fc:	e822                	sd	s0,16(sp)
    800008fe:	e426                	sd	s1,8(sp)
    80000900:	1000                	addi	s0,sp,32
    80000902:	84aa                	mv	s1,a0
  if(sz > 0)
    80000904:	e989                	bnez	a1,80000916 <uvmfree+0x1e>
    uvmunmap(pagetable, 0, PGROUNDUP(sz)/PGSIZE, 1);
  freewalk(pagetable);
    80000906:	8526                	mv	a0,s1
    80000908:	f95ff0ef          	jal	8000089c <freewalk>
}
    8000090c:	60e2                	ld	ra,24(sp)
    8000090e:	6442                	ld	s0,16(sp)
    80000910:	64a2                	ld	s1,8(sp)
    80000912:	6105                	addi	sp,sp,32
    80000914:	8082                	ret
    uvmunmap(pagetable, 0, PGROUNDUP(sz)/PGSIZE, 1);
    80000916:	6785                	lui	a5,0x1
    80000918:	17fd                	addi	a5,a5,-1 # fff <_entry-0x7ffff001>
    8000091a:	95be                	add	a1,a1,a5
    8000091c:	4685                	li	a3,1
    8000091e:	00c5d613          	srli	a2,a1,0xc
    80000922:	4581                	li	a1,0
    80000924:	d4bff0ef          	jal	8000066e <uvmunmap>
    80000928:	bff9                	j	80000906 <uvmfree+0xe>

000000008000092a <uvmcopy>:
  pte_t *pte;
  uint64 pa, i;
  uint flags;
  char *mem;

  for(i = 0; i < sz; i += PGSIZE){
    8000092a:	c64d                	beqz	a2,800009d4 <uvmcopy+0xaa>
{
    8000092c:	715d                	addi	sp,sp,-80
    8000092e:	e486                	sd	ra,72(sp)
    80000930:	e0a2                	sd	s0,64(sp)
    80000932:	fc26                	sd	s1,56(sp)
    80000934:	f84a                	sd	s2,48(sp)
    80000936:	f44e                	sd	s3,40(sp)
    80000938:	f052                	sd	s4,32(sp)
    8000093a:	ec56                	sd	s5,24(sp)
    8000093c:	e85a                	sd	s6,16(sp)
    8000093e:	e45e                	sd	s7,8(sp)
    80000940:	0880                	addi	s0,sp,80
    80000942:	8b2a                	mv	s6,a0
    80000944:	8aae                	mv	s5,a1
    80000946:	8a32                	mv	s4,a2
  for(i = 0; i < sz; i += PGSIZE){
    80000948:	4901                	li	s2,0
      panic("uvmcopy: page not present");
    pa = PTE2PA(*pte);
    flags = PTE_FLAGS(*pte);
    if((mem = kalloc()) == 0)
      goto err;
    memmove(mem, (char*)pa, PGSIZE);
    8000094a:	6985                	lui	s3,0x1
    if((pte = walk(old, i, 0)) == 0)
    8000094c:	4601                	li	a2,0
    8000094e:	85ca                	mv	a1,s2
    80000950:	855a                	mv	a0,s6
    80000952:	aa1ff0ef          	jal	800003f2 <walk>
    80000956:	cd0d                	beqz	a0,80000990 <uvmcopy+0x66>
    if((*pte & PTE_V) == 0)
    80000958:	00053b83          	ld	s7,0(a0)
    8000095c:	001bf793          	andi	a5,s7,1
    80000960:	cf95                	beqz	a5,8000099c <uvmcopy+0x72>
    if((mem = kalloc()) == 0)
    80000962:	fa2ff0ef          	jal	80000104 <kalloc>
    80000966:	84aa                	mv	s1,a0
    80000968:	c139                	beqz	a0,800009ae <uvmcopy+0x84>
    pa = PTE2PA(*pte);
    8000096a:	00abd593          	srli	a1,s7,0xa
    memmove(mem, (char*)pa, PGSIZE);
    8000096e:	864e                	mv	a2,s3
    80000970:	05b2                	slli	a1,a1,0xc
    80000972:	84dff0ef          	jal	800001be <memmove>
    if(mappages(new, i, PGSIZE, (uint64)mem, flags) != 0){
    80000976:	3ffbf713          	andi	a4,s7,1023
    8000097a:	86a6                	mv	a3,s1
    8000097c:	864e                	mv	a2,s3
    8000097e:	85ca                	mv	a1,s2
    80000980:	8556                	mv	a0,s5
    80000982:	b45ff0ef          	jal	800004c6 <mappages>
    80000986:	e10d                	bnez	a0,800009a8 <uvmcopy+0x7e>
  for(i = 0; i < sz; i += PGSIZE){
    80000988:	994e                	add	s2,s2,s3
    8000098a:	fd4961e3          	bltu	s2,s4,8000094c <uvmcopy+0x22>
    8000098e:	a805                	j	800009be <uvmcopy+0x94>
      panic("uvmcopy: pte should exist");
    80000990:	00006517          	auipc	a0,0x6
    80000994:	7b850513          	addi	a0,a0,1976 # 80007148 <etext+0x148>
    80000998:	4a7040ef          	jal	8000563e <panic>
      panic("uvmcopy: page not present");
    8000099c:	00006517          	auipc	a0,0x6
    800009a0:	7cc50513          	addi	a0,a0,1996 # 80007168 <etext+0x168>
    800009a4:	49b040ef          	jal	8000563e <panic>
      kfree(mem);
    800009a8:	8526                	mv	a0,s1
    800009aa:	e72ff0ef          	jal	8000001c <kfree>
    }
  }
  return 0;

 err:
  uvmunmap(new, 0, i / PGSIZE, 1);
    800009ae:	4685                	li	a3,1
    800009b0:	00c95613          	srli	a2,s2,0xc
    800009b4:	4581                	li	a1,0
    800009b6:	8556                	mv	a0,s5
    800009b8:	cb7ff0ef          	jal	8000066e <uvmunmap>
  return -1;
    800009bc:	557d                	li	a0,-1
}
    800009be:	60a6                	ld	ra,72(sp)
    800009c0:	6406                	ld	s0,64(sp)
    800009c2:	74e2                	ld	s1,56(sp)
    800009c4:	7942                	ld	s2,48(sp)
    800009c6:	79a2                	ld	s3,40(sp)
    800009c8:	7a02                	ld	s4,32(sp)
    800009ca:	6ae2                	ld	s5,24(sp)
    800009cc:	6b42                	ld	s6,16(sp)
    800009ce:	6ba2                	ld	s7,8(sp)
    800009d0:	6161                	addi	sp,sp,80
    800009d2:	8082                	ret
  return 0;
    800009d4:	4501                	li	a0,0
}
    800009d6:	8082                	ret

00000000800009d8 <uvmclear>:

// mark a PTE invalid for user access.
// used by exec for the user stack guard page.
void
uvmclear(pagetable_t pagetable, uint64 va)
{
    800009d8:	1141                	addi	sp,sp,-16
    800009da:	e406                	sd	ra,8(sp)
    800009dc:	e022                	sd	s0,0(sp)
    800009de:	0800                	addi	s0,sp,16
  pte_t *pte;
  
  pte = walk(pagetable, va, 0);
    800009e0:	4601                	li	a2,0
    800009e2:	a11ff0ef          	jal	800003f2 <walk>
  if(pte == 0)
    800009e6:	c901                	beqz	a0,800009f6 <uvmclear+0x1e>
    panic("uvmclear");
  *pte &= ~PTE_U;
    800009e8:	611c                	ld	a5,0(a0)
    800009ea:	9bbd                	andi	a5,a5,-17
    800009ec:	e11c                	sd	a5,0(a0)
}
    800009ee:	60a2                	ld	ra,8(sp)
    800009f0:	6402                	ld	s0,0(sp)
    800009f2:	0141                	addi	sp,sp,16
    800009f4:	8082                	ret
    panic("uvmclear");
    800009f6:	00006517          	auipc	a0,0x6
    800009fa:	79250513          	addi	a0,a0,1938 # 80007188 <etext+0x188>
    800009fe:	441040ef          	jal	8000563e <panic>

0000000080000a02 <copyout>:
copyout(pagetable_t pagetable, uint64 dstva, char *src, uint64 len)
{
  uint64 n, va0, pa0;
  pte_t *pte;

  while(len > 0){
    80000a02:	c2d9                	beqz	a3,80000a88 <copyout+0x86>
{
    80000a04:	711d                	addi	sp,sp,-96
    80000a06:	ec86                	sd	ra,88(sp)
    80000a08:	e8a2                	sd	s0,80(sp)
    80000a0a:	e4a6                	sd	s1,72(sp)
    80000a0c:	e0ca                	sd	s2,64(sp)
    80000a0e:	fc4e                	sd	s3,56(sp)
    80000a10:	f852                	sd	s4,48(sp)
    80000a12:	f456                	sd	s5,40(sp)
    80000a14:	f05a                	sd	s6,32(sp)
    80000a16:	ec5e                	sd	s7,24(sp)
    80000a18:	e862                	sd	s8,16(sp)
    80000a1a:	e466                	sd	s9,8(sp)
    80000a1c:	e06a                	sd	s10,0(sp)
    80000a1e:	1080                	addi	s0,sp,96
    80000a20:	8c2a                	mv	s8,a0
    80000a22:	892e                	mv	s2,a1
    80000a24:	8ab2                	mv	s5,a2
    80000a26:	8a36                	mv	s4,a3
    va0 = PGROUNDDOWN(dstva);
    80000a28:	7cfd                	lui	s9,0xfffff
    if(va0 >= MAXVA)
    80000a2a:	5bfd                	li	s7,-1
    80000a2c:	01abdb93          	srli	s7,s7,0x1a
      return -1;
    pte = walk(pagetable, va0, 0);
    if(pte == 0 || (*pte & PTE_V) == 0 || (*pte & PTE_U) == 0 ||
    80000a30:	4d55                	li	s10,21
       (*pte & PTE_W) == 0)
      return -1;
    pa0 = PTE2PA(*pte);
    n = PGSIZE - (dstva - va0);
    80000a32:	6b05                	lui	s6,0x1
    80000a34:	a015                	j	80000a58 <copyout+0x56>
    pa0 = PTE2PA(*pte);
    80000a36:	83a9                	srli	a5,a5,0xa
    80000a38:	07b2                	slli	a5,a5,0xc
    if(n > len)
      n = len;
    memmove((void *)(pa0 + (dstva - va0)), src, n);
    80000a3a:	41390533          	sub	a0,s2,s3
    80000a3e:	0004861b          	sext.w	a2,s1
    80000a42:	85d6                	mv	a1,s5
    80000a44:	953e                	add	a0,a0,a5
    80000a46:	f78ff0ef          	jal	800001be <memmove>

    len -= n;
    80000a4a:	409a0a33          	sub	s4,s4,s1
    src += n;
    80000a4e:	9aa6                	add	s5,s5,s1
    dstva = va0 + PGSIZE;
    80000a50:	01698933          	add	s2,s3,s6
  while(len > 0){
    80000a54:	020a0863          	beqz	s4,80000a84 <copyout+0x82>
    va0 = PGROUNDDOWN(dstva);
    80000a58:	019979b3          	and	s3,s2,s9
    if(va0 >= MAXVA)
    80000a5c:	033be863          	bltu	s7,s3,80000a8c <copyout+0x8a>
    pte = walk(pagetable, va0, 0);
    80000a60:	4601                	li	a2,0
    80000a62:	85ce                	mv	a1,s3
    80000a64:	8562                	mv	a0,s8
    80000a66:	98dff0ef          	jal	800003f2 <walk>
    if(pte == 0 || (*pte & PTE_V) == 0 || (*pte & PTE_U) == 0 ||
    80000a6a:	c11d                	beqz	a0,80000a90 <copyout+0x8e>
    80000a6c:	611c                	ld	a5,0(a0)
    80000a6e:	0157f713          	andi	a4,a5,21
    80000a72:	03a71163          	bne	a4,s10,80000a94 <copyout+0x92>
    n = PGSIZE - (dstva - va0);
    80000a76:	412984b3          	sub	s1,s3,s2
    80000a7a:	94da                	add	s1,s1,s6
    if(n > len)
    80000a7c:	fa9a7de3          	bgeu	s4,s1,80000a36 <copyout+0x34>
    80000a80:	84d2                	mv	s1,s4
    80000a82:	bf55                	j	80000a36 <copyout+0x34>
  }
  return 0;
    80000a84:	4501                	li	a0,0
    80000a86:	a801                	j	80000a96 <copyout+0x94>
    80000a88:	4501                	li	a0,0
}
    80000a8a:	8082                	ret
      return -1;
    80000a8c:	557d                	li	a0,-1
    80000a8e:	a021                	j	80000a96 <copyout+0x94>
      return -1;
    80000a90:	557d                	li	a0,-1
    80000a92:	a011                	j	80000a96 <copyout+0x94>
    80000a94:	557d                	li	a0,-1
}
    80000a96:	60e6                	ld	ra,88(sp)
    80000a98:	6446                	ld	s0,80(sp)
    80000a9a:	64a6                	ld	s1,72(sp)
    80000a9c:	6906                	ld	s2,64(sp)
    80000a9e:	79e2                	ld	s3,56(sp)
    80000aa0:	7a42                	ld	s4,48(sp)
    80000aa2:	7aa2                	ld	s5,40(sp)
    80000aa4:	7b02                	ld	s6,32(sp)
    80000aa6:	6be2                	ld	s7,24(sp)
    80000aa8:	6c42                	ld	s8,16(sp)
    80000aaa:	6ca2                	ld	s9,8(sp)
    80000aac:	6d02                	ld	s10,0(sp)
    80000aae:	6125                	addi	sp,sp,96
    80000ab0:	8082                	ret

0000000080000ab2 <copyin>:
int
copyin(pagetable_t pagetable, char *dst, uint64 srcva, uint64 len)
{
  uint64 n, va0, pa0;

  while(len > 0){
    80000ab2:	c6a5                	beqz	a3,80000b1a <copyin+0x68>
{
    80000ab4:	715d                	addi	sp,sp,-80
    80000ab6:	e486                	sd	ra,72(sp)
    80000ab8:	e0a2                	sd	s0,64(sp)
    80000aba:	fc26                	sd	s1,56(sp)
    80000abc:	f84a                	sd	s2,48(sp)
    80000abe:	f44e                	sd	s3,40(sp)
    80000ac0:	f052                	sd	s4,32(sp)
    80000ac2:	ec56                	sd	s5,24(sp)
    80000ac4:	e85a                	sd	s6,16(sp)
    80000ac6:	e45e                	sd	s7,8(sp)
    80000ac8:	e062                	sd	s8,0(sp)
    80000aca:	0880                	addi	s0,sp,80
    80000acc:	8b2a                	mv	s6,a0
    80000ace:	8a2e                	mv	s4,a1
    80000ad0:	8c32                	mv	s8,a2
    80000ad2:	89b6                	mv	s3,a3
    va0 = PGROUNDDOWN(srcva);
    80000ad4:	7bfd                	lui	s7,0xfffff
    pa0 = walkaddr(pagetable, va0);
    if(pa0 == 0)
      return -1;
    n = PGSIZE - (srcva - va0);
    80000ad6:	6a85                	lui	s5,0x1
    80000ad8:	a00d                	j	80000afa <copyin+0x48>
    if(n > len)
      n = len;
    memmove(dst, (void *)(pa0 + (srcva - va0)), n);
    80000ada:	018505b3          	add	a1,a0,s8
    80000ade:	0004861b          	sext.w	a2,s1
    80000ae2:	412585b3          	sub	a1,a1,s2
    80000ae6:	8552                	mv	a0,s4
    80000ae8:	ed6ff0ef          	jal	800001be <memmove>

    len -= n;
    80000aec:	409989b3          	sub	s3,s3,s1
    dst += n;
    80000af0:	9a26                	add	s4,s4,s1
    srcva = va0 + PGSIZE;
    80000af2:	01590c33          	add	s8,s2,s5
  while(len > 0){
    80000af6:	02098063          	beqz	s3,80000b16 <copyin+0x64>
    va0 = PGROUNDDOWN(srcva);
    80000afa:	017c7933          	and	s2,s8,s7
    pa0 = walkaddr(pagetable, va0);
    80000afe:	85ca                	mv	a1,s2
    80000b00:	855a                	mv	a0,s6
    80000b02:	98bff0ef          	jal	8000048c <walkaddr>
    if(pa0 == 0)
    80000b06:	cd01                	beqz	a0,80000b1e <copyin+0x6c>
    n = PGSIZE - (srcva - va0);
    80000b08:	418904b3          	sub	s1,s2,s8
    80000b0c:	94d6                	add	s1,s1,s5
    if(n > len)
    80000b0e:	fc99f6e3          	bgeu	s3,s1,80000ada <copyin+0x28>
    80000b12:	84ce                	mv	s1,s3
    80000b14:	b7d9                	j	80000ada <copyin+0x28>
  }
  return 0;
    80000b16:	4501                	li	a0,0
    80000b18:	a021                	j	80000b20 <copyin+0x6e>
    80000b1a:	4501                	li	a0,0
}
    80000b1c:	8082                	ret
      return -1;
    80000b1e:	557d                	li	a0,-1
}
    80000b20:	60a6                	ld	ra,72(sp)
    80000b22:	6406                	ld	s0,64(sp)
    80000b24:	74e2                	ld	s1,56(sp)
    80000b26:	7942                	ld	s2,48(sp)
    80000b28:	79a2                	ld	s3,40(sp)
    80000b2a:	7a02                	ld	s4,32(sp)
    80000b2c:	6ae2                	ld	s5,24(sp)
    80000b2e:	6b42                	ld	s6,16(sp)
    80000b30:	6ba2                	ld	s7,8(sp)
    80000b32:	6c02                	ld	s8,0(sp)
    80000b34:	6161                	addi	sp,sp,80
    80000b36:	8082                	ret

0000000080000b38 <copyinstr>:
copyinstr(pagetable_t pagetable, char *dst, uint64 srcva, uint64 max)
{
  uint64 n, va0, pa0;
  int got_null = 0;

  while(got_null == 0 && max > 0){
    80000b38:	cac5                	beqz	a3,80000be8 <copyinstr+0xb0>
{
    80000b3a:	715d                	addi	sp,sp,-80
    80000b3c:	e486                	sd	ra,72(sp)
    80000b3e:	e0a2                	sd	s0,64(sp)
    80000b40:	fc26                	sd	s1,56(sp)
    80000b42:	f84a                	sd	s2,48(sp)
    80000b44:	f44e                	sd	s3,40(sp)
    80000b46:	f052                	sd	s4,32(sp)
    80000b48:	ec56                	sd	s5,24(sp)
    80000b4a:	e85a                	sd	s6,16(sp)
    80000b4c:	e45e                	sd	s7,8(sp)
    80000b4e:	0880                	addi	s0,sp,80
    80000b50:	8aaa                	mv	s5,a0
    80000b52:	84ae                	mv	s1,a1
    80000b54:	8bb2                	mv	s7,a2
    80000b56:	89b6                	mv	s3,a3
    va0 = PGROUNDDOWN(srcva);
    80000b58:	7b7d                	lui	s6,0xfffff
    pa0 = walkaddr(pagetable, va0);
    if(pa0 == 0)
      return -1;
    n = PGSIZE - (srcva - va0);
    80000b5a:	6a05                	lui	s4,0x1
    80000b5c:	a82d                	j	80000b96 <copyinstr+0x5e>
      n = max;

    char *p = (char *) (pa0 + (srcva - va0));
    while(n > 0){
      if(*p == '\0'){
        *dst = '\0';
    80000b5e:	00078023          	sb	zero,0(a5)
        got_null = 1;
    80000b62:	4785                	li	a5,1
      dst++;
    }

    srcva = va0 + PGSIZE;
  }
  if(got_null){
    80000b64:	0017c793          	xori	a5,a5,1
    80000b68:	40f0053b          	negw	a0,a5
    return 0;
  } else {
    return -1;
  }
}
    80000b6c:	60a6                	ld	ra,72(sp)
    80000b6e:	6406                	ld	s0,64(sp)
    80000b70:	74e2                	ld	s1,56(sp)
    80000b72:	7942                	ld	s2,48(sp)
    80000b74:	79a2                	ld	s3,40(sp)
    80000b76:	7a02                	ld	s4,32(sp)
    80000b78:	6ae2                	ld	s5,24(sp)
    80000b7a:	6b42                	ld	s6,16(sp)
    80000b7c:	6ba2                	ld	s7,8(sp)
    80000b7e:	6161                	addi	sp,sp,80
    80000b80:	8082                	ret
    80000b82:	fff98713          	addi	a4,s3,-1 # fff <_entry-0x7ffff001>
    80000b86:	9726                	add	a4,a4,s1
      --max;
    80000b88:	40b709b3          	sub	s3,a4,a1
    srcva = va0 + PGSIZE;
    80000b8c:	01490bb3          	add	s7,s2,s4
  while(got_null == 0 && max > 0){
    80000b90:	04e58463          	beq	a1,a4,80000bd8 <copyinstr+0xa0>
{
    80000b94:	84be                	mv	s1,a5
    va0 = PGROUNDDOWN(srcva);
    80000b96:	016bf933          	and	s2,s7,s6
    pa0 = walkaddr(pagetable, va0);
    80000b9a:	85ca                	mv	a1,s2
    80000b9c:	8556                	mv	a0,s5
    80000b9e:	8efff0ef          	jal	8000048c <walkaddr>
    if(pa0 == 0)
    80000ba2:	cd0d                	beqz	a0,80000bdc <copyinstr+0xa4>
    n = PGSIZE - (srcva - va0);
    80000ba4:	417906b3          	sub	a3,s2,s7
    80000ba8:	96d2                	add	a3,a3,s4
    if(n > max)
    80000baa:	00d9f363          	bgeu	s3,a3,80000bb0 <copyinstr+0x78>
    80000bae:	86ce                	mv	a3,s3
    while(n > 0){
    80000bb0:	ca85                	beqz	a3,80000be0 <copyinstr+0xa8>
    char *p = (char *) (pa0 + (srcva - va0));
    80000bb2:	01750633          	add	a2,a0,s7
    80000bb6:	41260633          	sub	a2,a2,s2
    80000bba:	87a6                	mv	a5,s1
      if(*p == '\0'){
    80000bbc:	8e05                	sub	a2,a2,s1
    while(n > 0){
    80000bbe:	96a6                	add	a3,a3,s1
    80000bc0:	85be                	mv	a1,a5
      if(*p == '\0'){
    80000bc2:	00f60733          	add	a4,a2,a5
    80000bc6:	00074703          	lbu	a4,0(a4)
    80000bca:	db51                	beqz	a4,80000b5e <copyinstr+0x26>
        *dst = *p;
    80000bcc:	00e78023          	sb	a4,0(a5)
      dst++;
    80000bd0:	0785                	addi	a5,a5,1
    while(n > 0){
    80000bd2:	fed797e3          	bne	a5,a3,80000bc0 <copyinstr+0x88>
    80000bd6:	b775                	j	80000b82 <copyinstr+0x4a>
    80000bd8:	4781                	li	a5,0
    80000bda:	b769                	j	80000b64 <copyinstr+0x2c>
      return -1;
    80000bdc:	557d                	li	a0,-1
    80000bde:	b779                	j	80000b6c <copyinstr+0x34>
    srcva = va0 + PGSIZE;
    80000be0:	6b85                	lui	s7,0x1
    80000be2:	9bca                	add	s7,s7,s2
    80000be4:	87a6                	mv	a5,s1
    80000be6:	b77d                	j	80000b94 <copyinstr+0x5c>
  int got_null = 0;
    80000be8:	4781                	li	a5,0
  if(got_null){
    80000bea:	0017c793          	xori	a5,a5,1
    80000bee:	40f0053b          	negw	a0,a5
}
    80000bf2:	8082                	ret

0000000080000bf4 <proc_mapstacks>:
// Allocate a page for each process's kernel stack.
// Map it high in memory, followed by an invalid
// guard page.
void
proc_mapstacks(pagetable_t kpgtbl)
{
    80000bf4:	715d                	addi	sp,sp,-80
    80000bf6:	e486                	sd	ra,72(sp)
    80000bf8:	e0a2                	sd	s0,64(sp)
    80000bfa:	fc26                	sd	s1,56(sp)
    80000bfc:	f84a                	sd	s2,48(sp)
    80000bfe:	f44e                	sd	s3,40(sp)
    80000c00:	f052                	sd	s4,32(sp)
    80000c02:	ec56                	sd	s5,24(sp)
    80000c04:	e85a                	sd	s6,16(sp)
    80000c06:	e45e                	sd	s7,8(sp)
    80000c08:	e062                	sd	s8,0(sp)
    80000c0a:	0880                	addi	s0,sp,80
    80000c0c:	8a2a                	mv	s4,a0
  struct proc *p;
  
  for(p = proc; p < &proc[NPROC]; p++) {
    80000c0e:	0000a497          	auipc	s1,0xa
    80000c12:	b4248493          	addi	s1,s1,-1214 # 8000a750 <proc>
    char *pa = kalloc();
    if(pa == 0)
      panic("kalloc");
    uint64 va = KSTACK((int) (p - proc));
    80000c16:	8c26                	mv	s8,s1
    80000c18:	000a57b7          	lui	a5,0xa5
    80000c1c:	fa578793          	addi	a5,a5,-91 # a4fa5 <_entry-0x7ff5b05b>
    80000c20:	07b2                	slli	a5,a5,0xc
    80000c22:	fa578793          	addi	a5,a5,-91
    80000c26:	4fa50937          	lui	s2,0x4fa50
    80000c2a:	a4f90913          	addi	s2,s2,-1457 # 4fa4fa4f <_entry-0x305b05b1>
    80000c2e:	1902                	slli	s2,s2,0x20
    80000c30:	993e                	add	s2,s2,a5
    80000c32:	040009b7          	lui	s3,0x4000
    80000c36:	19fd                	addi	s3,s3,-1 # 3ffffff <_entry-0x7c000001>
    80000c38:	09b2                	slli	s3,s3,0xc
    kvmmap(kpgtbl, va, (uint64)pa, PGSIZE, PTE_R | PTE_W);
    80000c3a:	4b99                	li	s7,6
    80000c3c:	6b05                	lui	s6,0x1
  for(p = proc; p < &proc[NPROC]; p++) {
    80000c3e:	0000fa97          	auipc	s5,0xf
    80000c42:	512a8a93          	addi	s5,s5,1298 # 80010150 <tickslock>
    char *pa = kalloc();
    80000c46:	cbeff0ef          	jal	80000104 <kalloc>
    80000c4a:	862a                	mv	a2,a0
    if(pa == 0)
    80000c4c:	c121                	beqz	a0,80000c8c <proc_mapstacks+0x98>
    uint64 va = KSTACK((int) (p - proc));
    80000c4e:	418485b3          	sub	a1,s1,s8
    80000c52:	858d                	srai	a1,a1,0x3
    80000c54:	032585b3          	mul	a1,a1,s2
    80000c58:	05b6                	slli	a1,a1,0xd
    80000c5a:	6789                	lui	a5,0x2
    80000c5c:	9dbd                	addw	a1,a1,a5
    kvmmap(kpgtbl, va, (uint64)pa, PGSIZE, PTE_R | PTE_W);
    80000c5e:	875e                	mv	a4,s7
    80000c60:	86da                	mv	a3,s6
    80000c62:	40b985b3          	sub	a1,s3,a1
    80000c66:	8552                	mv	a0,s4
    80000c68:	915ff0ef          	jal	8000057c <kvmmap>
  for(p = proc; p < &proc[NPROC]; p++) {
    80000c6c:	16848493          	addi	s1,s1,360
    80000c70:	fd549be3          	bne	s1,s5,80000c46 <proc_mapstacks+0x52>
  }
}
    80000c74:	60a6                	ld	ra,72(sp)
    80000c76:	6406                	ld	s0,64(sp)
    80000c78:	74e2                	ld	s1,56(sp)
    80000c7a:	7942                	ld	s2,48(sp)
    80000c7c:	79a2                	ld	s3,40(sp)
    80000c7e:	7a02                	ld	s4,32(sp)
    80000c80:	6ae2                	ld	s5,24(sp)
    80000c82:	6b42                	ld	s6,16(sp)
    80000c84:	6ba2                	ld	s7,8(sp)
    80000c86:	6c02                	ld	s8,0(sp)
    80000c88:	6161                	addi	sp,sp,80
    80000c8a:	8082                	ret
      panic("kalloc");
    80000c8c:	00006517          	auipc	a0,0x6
    80000c90:	50c50513          	addi	a0,a0,1292 # 80007198 <etext+0x198>
    80000c94:	1ab040ef          	jal	8000563e <panic>

0000000080000c98 <procinit>:

// initialize the proc table.
void
procinit(void)
{
    80000c98:	7139                	addi	sp,sp,-64
    80000c9a:	fc06                	sd	ra,56(sp)
    80000c9c:	f822                	sd	s0,48(sp)
    80000c9e:	f426                	sd	s1,40(sp)
    80000ca0:	f04a                	sd	s2,32(sp)
    80000ca2:	ec4e                	sd	s3,24(sp)
    80000ca4:	e852                	sd	s4,16(sp)
    80000ca6:	e456                	sd	s5,8(sp)
    80000ca8:	e05a                	sd	s6,0(sp)
    80000caa:	0080                	addi	s0,sp,64
  struct proc *p;
  
  initlock(&pid_lock, "nextpid");
    80000cac:	00006597          	auipc	a1,0x6
    80000cb0:	4f458593          	addi	a1,a1,1268 # 800071a0 <etext+0x1a0>
    80000cb4:	00009517          	auipc	a0,0x9
    80000cb8:	66c50513          	addi	a0,a0,1644 # 8000a320 <pid_lock>
    80000cbc:	437040ef          	jal	800058f2 <initlock>
  initlock(&wait_lock, "wait_lock");
    80000cc0:	00006597          	auipc	a1,0x6
    80000cc4:	4e858593          	addi	a1,a1,1256 # 800071a8 <etext+0x1a8>
    80000cc8:	00009517          	auipc	a0,0x9
    80000ccc:	67050513          	addi	a0,a0,1648 # 8000a338 <wait_lock>
    80000cd0:	423040ef          	jal	800058f2 <initlock>
  for(p = proc; p < &proc[NPROC]; p++) {
    80000cd4:	0000a497          	auipc	s1,0xa
    80000cd8:	a7c48493          	addi	s1,s1,-1412 # 8000a750 <proc>
      initlock(&p->lock, "proc");
    80000cdc:	00006b17          	auipc	s6,0x6
    80000ce0:	4dcb0b13          	addi	s6,s6,1244 # 800071b8 <etext+0x1b8>
      p->state = UNUSED;
      p->kstack = KSTACK((int) (p - proc));
    80000ce4:	8aa6                	mv	s5,s1
    80000ce6:	000a57b7          	lui	a5,0xa5
    80000cea:	fa578793          	addi	a5,a5,-91 # a4fa5 <_entry-0x7ff5b05b>
    80000cee:	07b2                	slli	a5,a5,0xc
    80000cf0:	fa578793          	addi	a5,a5,-91
    80000cf4:	4fa50937          	lui	s2,0x4fa50
    80000cf8:	a4f90913          	addi	s2,s2,-1457 # 4fa4fa4f <_entry-0x305b05b1>
    80000cfc:	1902                	slli	s2,s2,0x20
    80000cfe:	993e                	add	s2,s2,a5
    80000d00:	040009b7          	lui	s3,0x4000
    80000d04:	19fd                	addi	s3,s3,-1 # 3ffffff <_entry-0x7c000001>
    80000d06:	09b2                	slli	s3,s3,0xc
  for(p = proc; p < &proc[NPROC]; p++) {
    80000d08:	0000fa17          	auipc	s4,0xf
    80000d0c:	448a0a13          	addi	s4,s4,1096 # 80010150 <tickslock>
      initlock(&p->lock, "proc");
    80000d10:	85da                	mv	a1,s6
    80000d12:	8526                	mv	a0,s1
    80000d14:	3df040ef          	jal	800058f2 <initlock>
      p->state = UNUSED;
    80000d18:	0004ac23          	sw	zero,24(s1)
      p->kstack = KSTACK((int) (p - proc));
    80000d1c:	415487b3          	sub	a5,s1,s5
    80000d20:	878d                	srai	a5,a5,0x3
    80000d22:	032787b3          	mul	a5,a5,s2
    80000d26:	07b6                	slli	a5,a5,0xd
    80000d28:	6709                	lui	a4,0x2
    80000d2a:	9fb9                	addw	a5,a5,a4
    80000d2c:	40f987b3          	sub	a5,s3,a5
    80000d30:	e0bc                	sd	a5,64(s1)
      p->frozen = 0;  // Initialize frozen flag
    80000d32:	0204aa23          	sw	zero,52(s1)
  for(p = proc; p < &proc[NPROC]; p++) {
    80000d36:	16848493          	addi	s1,s1,360
    80000d3a:	fd449be3          	bne	s1,s4,80000d10 <procinit+0x78>
  }
}
    80000d3e:	70e2                	ld	ra,56(sp)
    80000d40:	7442                	ld	s0,48(sp)
    80000d42:	74a2                	ld	s1,40(sp)
    80000d44:	7902                	ld	s2,32(sp)
    80000d46:	69e2                	ld	s3,24(sp)
    80000d48:	6a42                	ld	s4,16(sp)
    80000d4a:	6aa2                	ld	s5,8(sp)
    80000d4c:	6b02                	ld	s6,0(sp)
    80000d4e:	6121                	addi	sp,sp,64
    80000d50:	8082                	ret

0000000080000d52 <cpuid>:
// Must be called with interrupts disabled,
// to prevent race with process being moved
// to a different CPU.
int
cpuid()
{
    80000d52:	1141                	addi	sp,sp,-16
    80000d54:	e406                	sd	ra,8(sp)
    80000d56:	e022                	sd	s0,0(sp)
    80000d58:	0800                	addi	s0,sp,16
  asm volatile("mv %0, tp" : "=r" (x) );
    80000d5a:	8512                	mv	a0,tp
  int id = r_tp();
  return id;
}
    80000d5c:	2501                	sext.w	a0,a0
    80000d5e:	60a2                	ld	ra,8(sp)
    80000d60:	6402                	ld	s0,0(sp)
    80000d62:	0141                	addi	sp,sp,16
    80000d64:	8082                	ret

0000000080000d66 <mycpu>:

// Return this CPU's cpu struct.
// Interrupts must be disabled.
struct cpu*
mycpu(void)
{
    80000d66:	1141                	addi	sp,sp,-16
    80000d68:	e406                	sd	ra,8(sp)
    80000d6a:	e022                	sd	s0,0(sp)
    80000d6c:	0800                	addi	s0,sp,16
    80000d6e:	8792                	mv	a5,tp
  int id = cpuid();
  struct cpu *c = &cpus[id];
    80000d70:	2781                	sext.w	a5,a5
    80000d72:	079e                	slli	a5,a5,0x7
  return c;
}
    80000d74:	00009517          	auipc	a0,0x9
    80000d78:	5dc50513          	addi	a0,a0,1500 # 8000a350 <cpus>
    80000d7c:	953e                	add	a0,a0,a5
    80000d7e:	60a2                	ld	ra,8(sp)
    80000d80:	6402                	ld	s0,0(sp)
    80000d82:	0141                	addi	sp,sp,16
    80000d84:	8082                	ret

0000000080000d86 <myproc>:

// Return the current struct proc *, or zero if none.
struct proc*
myproc(void)
{
    80000d86:	1101                	addi	sp,sp,-32
    80000d88:	ec06                	sd	ra,24(sp)
    80000d8a:	e822                	sd	s0,16(sp)
    80000d8c:	e426                	sd	s1,8(sp)
    80000d8e:	1000                	addi	s0,sp,32
  push_off();
    80000d90:	3a9040ef          	jal	80005938 <push_off>
    80000d94:	8792                	mv	a5,tp
  struct cpu *c = mycpu();
  struct proc *p = c->proc;
    80000d96:	2781                	sext.w	a5,a5
    80000d98:	079e                	slli	a5,a5,0x7
    80000d9a:	00009717          	auipc	a4,0x9
    80000d9e:	58670713          	addi	a4,a4,1414 # 8000a320 <pid_lock>
    80000da2:	97ba                	add	a5,a5,a4
    80000da4:	7b9c                	ld	a5,48(a5)
    80000da6:	84be                	mv	s1,a5
  pop_off();
    80000da8:	419040ef          	jal	800059c0 <pop_off>
  return p;
}
    80000dac:	8526                	mv	a0,s1
    80000dae:	60e2                	ld	ra,24(sp)
    80000db0:	6442                	ld	s0,16(sp)
    80000db2:	64a2                	ld	s1,8(sp)
    80000db4:	6105                	addi	sp,sp,32
    80000db6:	8082                	ret

0000000080000db8 <forkret>:

// A fork child's very first scheduling by scheduler()
// will swtch to forkret.
void
forkret(void)
{
    80000db8:	1141                	addi	sp,sp,-16
    80000dba:	e406                	sd	ra,8(sp)
    80000dbc:	e022                	sd	s0,0(sp)
    80000dbe:	0800                	addi	s0,sp,16
  static int first = 1;

  // Still holding p->lock from scheduler.
  release(&myproc()->lock);
    80000dc0:	fc7ff0ef          	jal	80000d86 <myproc>
    80000dc4:	44d040ef          	jal	80005a10 <release>

  if (first) {
    80000dc8:	00009797          	auipc	a5,0x9
    80000dcc:	4b87a783          	lw	a5,1208(a5) # 8000a280 <first.1>
    80000dd0:	e799                	bnez	a5,80000dde <forkret+0x26>
    first = 0;
    // ensure other cores see first=0.
    __sync_synchronize();
  }

  usertrapret();
    80000dd2:	2cf000ef          	jal	800018a0 <usertrapret>
}
    80000dd6:	60a2                	ld	ra,8(sp)
    80000dd8:	6402                	ld	s0,0(sp)
    80000dda:	0141                	addi	sp,sp,16
    80000ddc:	8082                	ret
    fsinit(ROOTDEV);
    80000dde:	4505                	li	a0,1
    80000de0:	72a010ef          	jal	8000250a <fsinit>
    first = 0;
    80000de4:	00009797          	auipc	a5,0x9
    80000de8:	4807ae23          	sw	zero,1180(a5) # 8000a280 <first.1>
    __sync_synchronize();
    80000dec:	0330000f          	fence	rw,rw
    80000df0:	b7cd                	j	80000dd2 <forkret+0x1a>

0000000080000df2 <allocpid>:
{
    80000df2:	1101                	addi	sp,sp,-32
    80000df4:	ec06                	sd	ra,24(sp)
    80000df6:	e822                	sd	s0,16(sp)
    80000df8:	e426                	sd	s1,8(sp)
    80000dfa:	1000                	addi	s0,sp,32
  acquire(&pid_lock);
    80000dfc:	00009517          	auipc	a0,0x9
    80000e00:	52450513          	addi	a0,a0,1316 # 8000a320 <pid_lock>
    80000e04:	379040ef          	jal	8000597c <acquire>
  pid = nextpid;
    80000e08:	00009797          	auipc	a5,0x9
    80000e0c:	47c78793          	addi	a5,a5,1148 # 8000a284 <nextpid>
    80000e10:	4384                	lw	s1,0(a5)
  nextpid = nextpid + 1;
    80000e12:	0014871b          	addiw	a4,s1,1
    80000e16:	c398                	sw	a4,0(a5)
  release(&pid_lock);
    80000e18:	00009517          	auipc	a0,0x9
    80000e1c:	50850513          	addi	a0,a0,1288 # 8000a320 <pid_lock>
    80000e20:	3f1040ef          	jal	80005a10 <release>
}
    80000e24:	8526                	mv	a0,s1
    80000e26:	60e2                	ld	ra,24(sp)
    80000e28:	6442                	ld	s0,16(sp)
    80000e2a:	64a2                	ld	s1,8(sp)
    80000e2c:	6105                	addi	sp,sp,32
    80000e2e:	8082                	ret

0000000080000e30 <proc_pagetable>:
{
    80000e30:	1101                	addi	sp,sp,-32
    80000e32:	ec06                	sd	ra,24(sp)
    80000e34:	e822                	sd	s0,16(sp)
    80000e36:	e426                	sd	s1,8(sp)
    80000e38:	e04a                	sd	s2,0(sp)
    80000e3a:	1000                	addi	s0,sp,32
    80000e3c:	892a                	mv	s2,a0
  pagetable = uvmcreate();
    80000e3e:	8edff0ef          	jal	8000072a <uvmcreate>
    80000e42:	84aa                	mv	s1,a0
  if(pagetable == 0)
    80000e44:	cd05                	beqz	a0,80000e7c <proc_pagetable+0x4c>
  if(mappages(pagetable, TRAMPOLINE, PGSIZE,
    80000e46:	4729                	li	a4,10
    80000e48:	00005697          	auipc	a3,0x5
    80000e4c:	1b868693          	addi	a3,a3,440 # 80006000 <_trampoline>
    80000e50:	6605                	lui	a2,0x1
    80000e52:	040005b7          	lui	a1,0x4000
    80000e56:	15fd                	addi	a1,a1,-1 # 3ffffff <_entry-0x7c000001>
    80000e58:	05b2                	slli	a1,a1,0xc
    80000e5a:	e6cff0ef          	jal	800004c6 <mappages>
    80000e5e:	02054663          	bltz	a0,80000e8a <proc_pagetable+0x5a>
  if(mappages(pagetable, TRAPFRAME, PGSIZE,
    80000e62:	4719                	li	a4,6
    80000e64:	05893683          	ld	a3,88(s2)
    80000e68:	6605                	lui	a2,0x1
    80000e6a:	020005b7          	lui	a1,0x2000
    80000e6e:	15fd                	addi	a1,a1,-1 # 1ffffff <_entry-0x7e000001>
    80000e70:	05b6                	slli	a1,a1,0xd
    80000e72:	8526                	mv	a0,s1
    80000e74:	e52ff0ef          	jal	800004c6 <mappages>
    80000e78:	00054f63          	bltz	a0,80000e96 <proc_pagetable+0x66>
}
    80000e7c:	8526                	mv	a0,s1
    80000e7e:	60e2                	ld	ra,24(sp)
    80000e80:	6442                	ld	s0,16(sp)
    80000e82:	64a2                	ld	s1,8(sp)
    80000e84:	6902                	ld	s2,0(sp)
    80000e86:	6105                	addi	sp,sp,32
    80000e88:	8082                	ret
    uvmfree(pagetable, 0);
    80000e8a:	4581                	li	a1,0
    80000e8c:	8526                	mv	a0,s1
    80000e8e:	a6bff0ef          	jal	800008f8 <uvmfree>
    return 0;
    80000e92:	4481                	li	s1,0
    80000e94:	b7e5                	j	80000e7c <proc_pagetable+0x4c>
    uvmunmap(pagetable, TRAMPOLINE, 1, 0);
    80000e96:	4681                	li	a3,0
    80000e98:	4605                	li	a2,1
    80000e9a:	040005b7          	lui	a1,0x4000
    80000e9e:	15fd                	addi	a1,a1,-1 # 3ffffff <_entry-0x7c000001>
    80000ea0:	05b2                	slli	a1,a1,0xc
    80000ea2:	8526                	mv	a0,s1
    80000ea4:	fcaff0ef          	jal	8000066e <uvmunmap>
    uvmfree(pagetable, 0);
    80000ea8:	4581                	li	a1,0
    80000eaa:	8526                	mv	a0,s1
    80000eac:	a4dff0ef          	jal	800008f8 <uvmfree>
    return 0;
    80000eb0:	4481                	li	s1,0
    80000eb2:	b7e9                	j	80000e7c <proc_pagetable+0x4c>

0000000080000eb4 <proc_freepagetable>:
{
    80000eb4:	1101                	addi	sp,sp,-32
    80000eb6:	ec06                	sd	ra,24(sp)
    80000eb8:	e822                	sd	s0,16(sp)
    80000eba:	e426                	sd	s1,8(sp)
    80000ebc:	e04a                	sd	s2,0(sp)
    80000ebe:	1000                	addi	s0,sp,32
    80000ec0:	84aa                	mv	s1,a0
    80000ec2:	892e                	mv	s2,a1
  uvmunmap(pagetable, TRAMPOLINE, 1, 0);
    80000ec4:	4681                	li	a3,0
    80000ec6:	4605                	li	a2,1
    80000ec8:	040005b7          	lui	a1,0x4000
    80000ecc:	15fd                	addi	a1,a1,-1 # 3ffffff <_entry-0x7c000001>
    80000ece:	05b2                	slli	a1,a1,0xc
    80000ed0:	f9eff0ef          	jal	8000066e <uvmunmap>
  uvmunmap(pagetable, TRAPFRAME, 1, 0);
    80000ed4:	4681                	li	a3,0
    80000ed6:	4605                	li	a2,1
    80000ed8:	020005b7          	lui	a1,0x2000
    80000edc:	15fd                	addi	a1,a1,-1 # 1ffffff <_entry-0x7e000001>
    80000ede:	05b6                	slli	a1,a1,0xd
    80000ee0:	8526                	mv	a0,s1
    80000ee2:	f8cff0ef          	jal	8000066e <uvmunmap>
  uvmfree(pagetable, sz);
    80000ee6:	85ca                	mv	a1,s2
    80000ee8:	8526                	mv	a0,s1
    80000eea:	a0fff0ef          	jal	800008f8 <uvmfree>
}
    80000eee:	60e2                	ld	ra,24(sp)
    80000ef0:	6442                	ld	s0,16(sp)
    80000ef2:	64a2                	ld	s1,8(sp)
    80000ef4:	6902                	ld	s2,0(sp)
    80000ef6:	6105                	addi	sp,sp,32
    80000ef8:	8082                	ret

0000000080000efa <freeproc>:
{
    80000efa:	1101                	addi	sp,sp,-32
    80000efc:	ec06                	sd	ra,24(sp)
    80000efe:	e822                	sd	s0,16(sp)
    80000f00:	e426                	sd	s1,8(sp)
    80000f02:	1000                	addi	s0,sp,32
    80000f04:	84aa                	mv	s1,a0
  if(p->trapframe)
    80000f06:	6d28                	ld	a0,88(a0)
    80000f08:	c119                	beqz	a0,80000f0e <freeproc+0x14>
    kfree((void*)p->trapframe);
    80000f0a:	912ff0ef          	jal	8000001c <kfree>
  p->trapframe = 0;
    80000f0e:	0404bc23          	sd	zero,88(s1)
  if(p->pagetable)
    80000f12:	68a8                	ld	a0,80(s1)
    80000f14:	c501                	beqz	a0,80000f1c <freeproc+0x22>
    proc_freepagetable(p->pagetable, p->sz);
    80000f16:	64ac                	ld	a1,72(s1)
    80000f18:	f9dff0ef          	jal	80000eb4 <proc_freepagetable>
  p->pagetable = 0;
    80000f1c:	0404b823          	sd	zero,80(s1)
  p->sz = 0;
    80000f20:	0404b423          	sd	zero,72(s1)
  p->pid = 0;
    80000f24:	0204a823          	sw	zero,48(s1)
  p->parent = 0;
    80000f28:	0204bc23          	sd	zero,56(s1)
  p->name[0] = 0;
    80000f2c:	14048c23          	sb	zero,344(s1)
  p->chan = 0;
    80000f30:	0204b023          	sd	zero,32(s1)
  p->killed = 0;
    80000f34:	0204a423          	sw	zero,40(s1)
  p->xstate = 0;
    80000f38:	0204a623          	sw	zero,44(s1)
  p->state = UNUSED;
    80000f3c:	0004ac23          	sw	zero,24(s1)
}
    80000f40:	60e2                	ld	ra,24(sp)
    80000f42:	6442                	ld	s0,16(sp)
    80000f44:	64a2                	ld	s1,8(sp)
    80000f46:	6105                	addi	sp,sp,32
    80000f48:	8082                	ret

0000000080000f4a <allocproc>:
{
    80000f4a:	1101                	addi	sp,sp,-32
    80000f4c:	ec06                	sd	ra,24(sp)
    80000f4e:	e822                	sd	s0,16(sp)
    80000f50:	e426                	sd	s1,8(sp)
    80000f52:	e04a                	sd	s2,0(sp)
    80000f54:	1000                	addi	s0,sp,32
  for(p = proc; p < &proc[NPROC]; p++) {
    80000f56:	00009497          	auipc	s1,0x9
    80000f5a:	7fa48493          	addi	s1,s1,2042 # 8000a750 <proc>
    80000f5e:	0000f917          	auipc	s2,0xf
    80000f62:	1f290913          	addi	s2,s2,498 # 80010150 <tickslock>
    acquire(&p->lock);
    80000f66:	8526                	mv	a0,s1
    80000f68:	215040ef          	jal	8000597c <acquire>
    if(p->state == UNUSED) {
    80000f6c:	4c9c                	lw	a5,24(s1)
    80000f6e:	cb91                	beqz	a5,80000f82 <allocproc+0x38>
      release(&p->lock);
    80000f70:	8526                	mv	a0,s1
    80000f72:	29f040ef          	jal	80005a10 <release>
  for(p = proc; p < &proc[NPROC]; p++) {
    80000f76:	16848493          	addi	s1,s1,360
    80000f7a:	ff2496e3          	bne	s1,s2,80000f66 <allocproc+0x1c>
  return 0;
    80000f7e:	4481                	li	s1,0
    80000f80:	a089                	j	80000fc2 <allocproc+0x78>
  p->pid = allocpid();
    80000f82:	e71ff0ef          	jal	80000df2 <allocpid>
    80000f86:	d888                	sw	a0,48(s1)
  p->state = USED;
    80000f88:	4785                	li	a5,1
    80000f8a:	cc9c                	sw	a5,24(s1)
  if((p->trapframe = (struct trapframe *)kalloc()) == 0){
    80000f8c:	978ff0ef          	jal	80000104 <kalloc>
    80000f90:	892a                	mv	s2,a0
    80000f92:	eca8                	sd	a0,88(s1)
    80000f94:	cd15                	beqz	a0,80000fd0 <allocproc+0x86>
  p->pagetable = proc_pagetable(p);
    80000f96:	8526                	mv	a0,s1
    80000f98:	e99ff0ef          	jal	80000e30 <proc_pagetable>
    80000f9c:	892a                	mv	s2,a0
    80000f9e:	e8a8                	sd	a0,80(s1)
  if(p->pagetable == 0){
    80000fa0:	c121                	beqz	a0,80000fe0 <allocproc+0x96>
  memset(&p->context, 0, sizeof(p->context));
    80000fa2:	07000613          	li	a2,112
    80000fa6:	4581                	li	a1,0
    80000fa8:	06048513          	addi	a0,s1,96
    80000fac:	9b2ff0ef          	jal	8000015e <memset>
  p->context.ra = (uint64)forkret;
    80000fb0:	00000797          	auipc	a5,0x0
    80000fb4:	e0878793          	addi	a5,a5,-504 # 80000db8 <forkret>
    80000fb8:	f0bc                	sd	a5,96(s1)
  p->context.sp = p->kstack + PGSIZE;
    80000fba:	60bc                	ld	a5,64(s1)
    80000fbc:	6705                	lui	a4,0x1
    80000fbe:	97ba                	add	a5,a5,a4
    80000fc0:	f4bc                	sd	a5,104(s1)
}
    80000fc2:	8526                	mv	a0,s1
    80000fc4:	60e2                	ld	ra,24(sp)
    80000fc6:	6442                	ld	s0,16(sp)
    80000fc8:	64a2                	ld	s1,8(sp)
    80000fca:	6902                	ld	s2,0(sp)
    80000fcc:	6105                	addi	sp,sp,32
    80000fce:	8082                	ret
    freeproc(p);
    80000fd0:	8526                	mv	a0,s1
    80000fd2:	f29ff0ef          	jal	80000efa <freeproc>
    release(&p->lock);
    80000fd6:	8526                	mv	a0,s1
    80000fd8:	239040ef          	jal	80005a10 <release>
    return 0;
    80000fdc:	84ca                	mv	s1,s2
    80000fde:	b7d5                	j	80000fc2 <allocproc+0x78>
    freeproc(p);
    80000fe0:	8526                	mv	a0,s1
    80000fe2:	f19ff0ef          	jal	80000efa <freeproc>
    release(&p->lock);
    80000fe6:	8526                	mv	a0,s1
    80000fe8:	229040ef          	jal	80005a10 <release>
    return 0;
    80000fec:	84ca                	mv	s1,s2
    80000fee:	bfd1                	j	80000fc2 <allocproc+0x78>

0000000080000ff0 <userinit>:
{
    80000ff0:	1101                	addi	sp,sp,-32
    80000ff2:	ec06                	sd	ra,24(sp)
    80000ff4:	e822                	sd	s0,16(sp)
    80000ff6:	e426                	sd	s1,8(sp)
    80000ff8:	1000                	addi	s0,sp,32
  p = allocproc();
    80000ffa:	f51ff0ef          	jal	80000f4a <allocproc>
    80000ffe:	84aa                	mv	s1,a0
  initproc = p;
    80001000:	00009797          	auipc	a5,0x9
    80001004:	2ea7b023          	sd	a0,736(a5) # 8000a2e0 <initproc>
  uvmfirst(p->pagetable, initcode, sizeof(initcode));
    80001008:	03400613          	li	a2,52
    8000100c:	00009597          	auipc	a1,0x9
    80001010:	28458593          	addi	a1,a1,644 # 8000a290 <initcode>
    80001014:	6928                	ld	a0,80(a0)
    80001016:	f3aff0ef          	jal	80000750 <uvmfirst>
  p->sz = PGSIZE;
    8000101a:	6785                	lui	a5,0x1
    8000101c:	e4bc                	sd	a5,72(s1)
  p->trapframe->epc = 0;      // user program counter
    8000101e:	6cb8                	ld	a4,88(s1)
    80001020:	00073c23          	sd	zero,24(a4) # 1018 <_entry-0x7fffefe8>
  p->trapframe->sp = PGSIZE;  // user stack pointer
    80001024:	6cb8                	ld	a4,88(s1)
    80001026:	fb1c                	sd	a5,48(a4)
  safestrcpy(p->name, "initcode", sizeof(p->name));
    80001028:	4641                	li	a2,16
    8000102a:	00006597          	auipc	a1,0x6
    8000102e:	19658593          	addi	a1,a1,406 # 800071c0 <etext+0x1c0>
    80001032:	15848513          	addi	a0,s1,344
    80001036:	a7cff0ef          	jal	800002b2 <safestrcpy>
  p->cwd = namei("/");
    8000103a:	00006517          	auipc	a0,0x6
    8000103e:	19650513          	addi	a0,a0,406 # 800071d0 <etext+0x1d0>
    80001042:	5f9010ef          	jal	80002e3a <namei>
    80001046:	14a4b823          	sd	a0,336(s1)
  p->state = RUNNABLE;
    8000104a:	478d                	li	a5,3
    8000104c:	cc9c                	sw	a5,24(s1)
  release(&p->lock);
    8000104e:	8526                	mv	a0,s1
    80001050:	1c1040ef          	jal	80005a10 <release>
}
    80001054:	60e2                	ld	ra,24(sp)
    80001056:	6442                	ld	s0,16(sp)
    80001058:	64a2                	ld	s1,8(sp)
    8000105a:	6105                	addi	sp,sp,32
    8000105c:	8082                	ret

000000008000105e <growproc>:
{
    8000105e:	1101                	addi	sp,sp,-32
    80001060:	ec06                	sd	ra,24(sp)
    80001062:	e822                	sd	s0,16(sp)
    80001064:	e426                	sd	s1,8(sp)
    80001066:	e04a                	sd	s2,0(sp)
    80001068:	1000                	addi	s0,sp,32
    8000106a:	892a                	mv	s2,a0
  struct proc *p = myproc();
    8000106c:	d1bff0ef          	jal	80000d86 <myproc>
    80001070:	84aa                	mv	s1,a0
  sz = p->sz;
    80001072:	652c                	ld	a1,72(a0)
  if(n > 0){
    80001074:	01204c63          	bgtz	s2,8000108c <growproc+0x2e>
  } else if(n < 0){
    80001078:	02094463          	bltz	s2,800010a0 <growproc+0x42>
  p->sz = sz;
    8000107c:	e4ac                	sd	a1,72(s1)
  return 0;
    8000107e:	4501                	li	a0,0
}
    80001080:	60e2                	ld	ra,24(sp)
    80001082:	6442                	ld	s0,16(sp)
    80001084:	64a2                	ld	s1,8(sp)
    80001086:	6902                	ld	s2,0(sp)
    80001088:	6105                	addi	sp,sp,32
    8000108a:	8082                	ret
    if((sz = uvmalloc(p->pagetable, sz, sz + n, PTE_W)) == 0) {
    8000108c:	4691                	li	a3,4
    8000108e:	00b90633          	add	a2,s2,a1
    80001092:	6928                	ld	a0,80(a0)
    80001094:	f5eff0ef          	jal	800007f2 <uvmalloc>
    80001098:	85aa                	mv	a1,a0
    8000109a:	f16d                	bnez	a0,8000107c <growproc+0x1e>
      return -1;
    8000109c:	557d                	li	a0,-1
    8000109e:	b7cd                	j	80001080 <growproc+0x22>
    sz = uvmdealloc(p->pagetable, sz, sz + n);
    800010a0:	00b90633          	add	a2,s2,a1
    800010a4:	6928                	ld	a0,80(a0)
    800010a6:	f08ff0ef          	jal	800007ae <uvmdealloc>
    800010aa:	85aa                	mv	a1,a0
    800010ac:	bfc1                	j	8000107c <growproc+0x1e>

00000000800010ae <fork>:
{
    800010ae:	7139                	addi	sp,sp,-64
    800010b0:	fc06                	sd	ra,56(sp)
    800010b2:	f822                	sd	s0,48(sp)
    800010b4:	f426                	sd	s1,40(sp)
    800010b6:	e456                	sd	s5,8(sp)
    800010b8:	0080                	addi	s0,sp,64
  struct proc *p = myproc();
    800010ba:	ccdff0ef          	jal	80000d86 <myproc>
    800010be:	8aaa                	mv	s5,a0
  if((np = allocproc()) == 0){
    800010c0:	e8bff0ef          	jal	80000f4a <allocproc>
    800010c4:	0e050a63          	beqz	a0,800011b8 <fork+0x10a>
    800010c8:	e852                	sd	s4,16(sp)
    800010ca:	8a2a                	mv	s4,a0
  if(uvmcopy(p->pagetable, np->pagetable, p->sz) < 0){
    800010cc:	048ab603          	ld	a2,72(s5)
    800010d0:	692c                	ld	a1,80(a0)
    800010d2:	050ab503          	ld	a0,80(s5)
    800010d6:	855ff0ef          	jal	8000092a <uvmcopy>
    800010da:	04054863          	bltz	a0,8000112a <fork+0x7c>
    800010de:	f04a                	sd	s2,32(sp)
    800010e0:	ec4e                	sd	s3,24(sp)
  np->sz = p->sz;
    800010e2:	048ab783          	ld	a5,72(s5)
    800010e6:	04fa3423          	sd	a5,72(s4)
  *(np->trapframe) = *(p->trapframe);
    800010ea:	058ab683          	ld	a3,88(s5)
    800010ee:	87b6                	mv	a5,a3
    800010f0:	058a3703          	ld	a4,88(s4)
    800010f4:	12068693          	addi	a3,a3,288
    800010f8:	6388                	ld	a0,0(a5)
    800010fa:	678c                	ld	a1,8(a5)
    800010fc:	6b90                	ld	a2,16(a5)
    800010fe:	e308                	sd	a0,0(a4)
    80001100:	e70c                	sd	a1,8(a4)
    80001102:	eb10                	sd	a2,16(a4)
    80001104:	6f90                	ld	a2,24(a5)
    80001106:	ef10                	sd	a2,24(a4)
    80001108:	02078793          	addi	a5,a5,32 # 1020 <_entry-0x7fffefe0>
    8000110c:	02070713          	addi	a4,a4,32
    80001110:	fed794e3          	bne	a5,a3,800010f8 <fork+0x4a>
  np->trapframe->a0 = 0;
    80001114:	058a3783          	ld	a5,88(s4)
    80001118:	0607b823          	sd	zero,112(a5)
  for(i = 0; i < NOFILE; i++)
    8000111c:	0d0a8493          	addi	s1,s5,208
    80001120:	0d0a0913          	addi	s2,s4,208
    80001124:	150a8993          	addi	s3,s5,336
    80001128:	a831                	j	80001144 <fork+0x96>
    freeproc(np);
    8000112a:	8552                	mv	a0,s4
    8000112c:	dcfff0ef          	jal	80000efa <freeproc>
    release(&np->lock);
    80001130:	8552                	mv	a0,s4
    80001132:	0df040ef          	jal	80005a10 <release>
    return -1;
    80001136:	54fd                	li	s1,-1
    80001138:	6a42                	ld	s4,16(sp)
    8000113a:	a885                	j	800011aa <fork+0xfc>
  for(i = 0; i < NOFILE; i++)
    8000113c:	04a1                	addi	s1,s1,8
    8000113e:	0921                	addi	s2,s2,8
    80001140:	01348963          	beq	s1,s3,80001152 <fork+0xa4>
    if(p->ofile[i])
    80001144:	6088                	ld	a0,0(s1)
    80001146:	d97d                	beqz	a0,8000113c <fork+0x8e>
      np->ofile[i] = filedup(p->ofile[i]);
    80001148:	2a0020ef          	jal	800033e8 <filedup>
    8000114c:	00a93023          	sd	a0,0(s2)
    80001150:	b7f5                	j	8000113c <fork+0x8e>
  np->cwd = idup(p->cwd);
    80001152:	150ab503          	ld	a0,336(s5)
    80001156:	5b0010ef          	jal	80002706 <idup>
    8000115a:	14aa3823          	sd	a0,336(s4)
  safestrcpy(np->name, p->name, sizeof(p->name));
    8000115e:	4641                	li	a2,16
    80001160:	158a8593          	addi	a1,s5,344
    80001164:	158a0513          	addi	a0,s4,344
    80001168:	94aff0ef          	jal	800002b2 <safestrcpy>
  pid = np->pid;
    8000116c:	030a2483          	lw	s1,48(s4)
  release(&np->lock);
    80001170:	8552                	mv	a0,s4
    80001172:	09f040ef          	jal	80005a10 <release>
  acquire(&wait_lock);
    80001176:	00009517          	auipc	a0,0x9
    8000117a:	1c250513          	addi	a0,a0,450 # 8000a338 <wait_lock>
    8000117e:	7fe040ef          	jal	8000597c <acquire>
  np->parent = p;
    80001182:	035a3c23          	sd	s5,56(s4)
  release(&wait_lock);
    80001186:	00009517          	auipc	a0,0x9
    8000118a:	1b250513          	addi	a0,a0,434 # 8000a338 <wait_lock>
    8000118e:	083040ef          	jal	80005a10 <release>
  acquire(&np->lock);
    80001192:	8552                	mv	a0,s4
    80001194:	7e8040ef          	jal	8000597c <acquire>
  np->state = RUNNABLE;
    80001198:	478d                	li	a5,3
    8000119a:	00fa2c23          	sw	a5,24(s4)
  release(&np->lock);
    8000119e:	8552                	mv	a0,s4
    800011a0:	071040ef          	jal	80005a10 <release>
  return pid;
    800011a4:	7902                	ld	s2,32(sp)
    800011a6:	69e2                	ld	s3,24(sp)
    800011a8:	6a42                	ld	s4,16(sp)
}
    800011aa:	8526                	mv	a0,s1
    800011ac:	70e2                	ld	ra,56(sp)
    800011ae:	7442                	ld	s0,48(sp)
    800011b0:	74a2                	ld	s1,40(sp)
    800011b2:	6aa2                	ld	s5,8(sp)
    800011b4:	6121                	addi	sp,sp,64
    800011b6:	8082                	ret
    return -1;
    800011b8:	54fd                	li	s1,-1
    800011ba:	bfc5                	j	800011aa <fork+0xfc>

00000000800011bc <scheduler>:
{
    800011bc:	715d                	addi	sp,sp,-80
    800011be:	e486                	sd	ra,72(sp)
    800011c0:	e0a2                	sd	s0,64(sp)
    800011c2:	fc26                	sd	s1,56(sp)
    800011c4:	f84a                	sd	s2,48(sp)
    800011c6:	f44e                	sd	s3,40(sp)
    800011c8:	f052                	sd	s4,32(sp)
    800011ca:	ec56                	sd	s5,24(sp)
    800011cc:	e85a                	sd	s6,16(sp)
    800011ce:	e45e                	sd	s7,8(sp)
    800011d0:	e062                	sd	s8,0(sp)
    800011d2:	0880                	addi	s0,sp,80
    800011d4:	8792                	mv	a5,tp
  int id = r_tp();
    800011d6:	2781                	sext.w	a5,a5
  c->proc = 0;
    800011d8:	00779b93          	slli	s7,a5,0x7
    800011dc:	00009717          	auipc	a4,0x9
    800011e0:	14470713          	addi	a4,a4,324 # 8000a320 <pid_lock>
    800011e4:	975e                	add	a4,a4,s7
    800011e6:	02073823          	sd	zero,48(a4)
        swtch(&c->context, &p->context);
    800011ea:	00009717          	auipc	a4,0x9
    800011ee:	16e70713          	addi	a4,a4,366 # 8000a358 <cpus+0x8>
    800011f2:	9bba                	add	s7,s7,a4
      if(p->state == RUNNABLE) {
    800011f4:	498d                	li	s3,3
        c->proc = p;
    800011f6:	079e                	slli	a5,a5,0x7
    800011f8:	00009a17          	auipc	s4,0x9
    800011fc:	128a0a13          	addi	s4,s4,296 # 8000a320 <pid_lock>
    80001200:	9a3e                	add	s4,s4,a5
        found = 1;
    80001202:	4c05                	li	s8,1
    80001204:	a899                	j	8000125a <scheduler+0x9e>
        release(&p->lock);
    80001206:	8526                	mv	a0,s1
    80001208:	009040ef          	jal	80005a10 <release>
        continue;
    8000120c:	a021                	j	80001214 <scheduler+0x58>
      release(&p->lock);
    8000120e:	8526                	mv	a0,s1
    80001210:	001040ef          	jal	80005a10 <release>
    for(p = proc; p < &proc[NPROC]; p++) {
    80001214:	16848493          	addi	s1,s1,360
    80001218:	03248763          	beq	s1,s2,80001246 <scheduler+0x8a>
      acquire(&p->lock);
    8000121c:	8526                	mv	a0,s1
    8000121e:	75e040ef          	jal	8000597c <acquire>
      if(p->frozen) {
    80001222:	58dc                	lw	a5,52(s1)
    80001224:	f3ed                	bnez	a5,80001206 <scheduler+0x4a>
      if(p->state == RUNNABLE) {
    80001226:	4c9c                	lw	a5,24(s1)
    80001228:	ff3793e3          	bne	a5,s3,8000120e <scheduler+0x52>
        p->state = RUNNING;
    8000122c:	0164ac23          	sw	s6,24(s1)
        c->proc = p;
    80001230:	029a3823          	sd	s1,48(s4)
        swtch(&c->context, &p->context);
    80001234:	06048593          	addi	a1,s1,96
    80001238:	855e                	mv	a0,s7
    8000123a:	5bc000ef          	jal	800017f6 <swtch>
        c->proc = 0;
    8000123e:	020a3823          	sd	zero,48(s4)
        found = 1;
    80001242:	8ae2                	mv	s5,s8
    80001244:	b7e9                	j	8000120e <scheduler+0x52>
    if(found == 0) {
    80001246:	000a9a63          	bnez	s5,8000125a <scheduler+0x9e>
  asm volatile("csrr %0, sstatus" : "=r" (x) );
    8000124a:	100027f3          	csrr	a5,sstatus
  w_sstatus(r_sstatus() | SSTATUS_SIE);
    8000124e:	0027e793          	ori	a5,a5,2
  asm volatile("csrw sstatus, %0" : : "r" (x));
    80001252:	10079073          	csrw	sstatus,a5
      asm volatile("wfi");
    80001256:	10500073          	wfi
  asm volatile("csrr %0, sstatus" : "=r" (x) );
    8000125a:	100027f3          	csrr	a5,sstatus
  w_sstatus(r_sstatus() | SSTATUS_SIE);
    8000125e:	0027e793          	ori	a5,a5,2
  asm volatile("csrw sstatus, %0" : : "r" (x));
    80001262:	10079073          	csrw	sstatus,a5
    int found = 0;
    80001266:	4a81                	li	s5,0
    for(p = proc; p < &proc[NPROC]; p++) {
    80001268:	00009497          	auipc	s1,0x9
    8000126c:	4e848493          	addi	s1,s1,1256 # 8000a750 <proc>
        p->state = RUNNING;
    80001270:	4b11                	li	s6,4
    for(p = proc; p < &proc[NPROC]; p++) {
    80001272:	0000f917          	auipc	s2,0xf
    80001276:	ede90913          	addi	s2,s2,-290 # 80010150 <tickslock>
    8000127a:	b74d                	j	8000121c <scheduler+0x60>

000000008000127c <sched>:
{
    8000127c:	7179                	addi	sp,sp,-48
    8000127e:	f406                	sd	ra,40(sp)
    80001280:	f022                	sd	s0,32(sp)
    80001282:	ec26                	sd	s1,24(sp)
    80001284:	e84a                	sd	s2,16(sp)
    80001286:	e44e                	sd	s3,8(sp)
    80001288:	1800                	addi	s0,sp,48
  struct proc *p = myproc();
    8000128a:	afdff0ef          	jal	80000d86 <myproc>
    8000128e:	84aa                	mv	s1,a0
  if(!holding(&p->lock))
    80001290:	67c040ef          	jal	8000590c <holding>
    80001294:	c935                	beqz	a0,80001308 <sched+0x8c>
  asm volatile("mv %0, tp" : "=r" (x) );
    80001296:	8792                	mv	a5,tp
  if(mycpu()->noff != 1)
    80001298:	2781                	sext.w	a5,a5
    8000129a:	079e                	slli	a5,a5,0x7
    8000129c:	00009717          	auipc	a4,0x9
    800012a0:	08470713          	addi	a4,a4,132 # 8000a320 <pid_lock>
    800012a4:	97ba                	add	a5,a5,a4
    800012a6:	0a87a703          	lw	a4,168(a5)
    800012aa:	4785                	li	a5,1
    800012ac:	06f71463          	bne	a4,a5,80001314 <sched+0x98>
  if(p->state == RUNNING)
    800012b0:	4c98                	lw	a4,24(s1)
    800012b2:	4791                	li	a5,4
    800012b4:	06f70663          	beq	a4,a5,80001320 <sched+0xa4>
  asm volatile("csrr %0, sstatus" : "=r" (x) );
    800012b8:	100027f3          	csrr	a5,sstatus
  return (x & SSTATUS_SIE) != 0;
    800012bc:	8b89                	andi	a5,a5,2
  if(intr_get())
    800012be:	e7bd                	bnez	a5,8000132c <sched+0xb0>
  asm volatile("mv %0, tp" : "=r" (x) );
    800012c0:	8792                	mv	a5,tp
  intena = mycpu()->intena;
    800012c2:	00009917          	auipc	s2,0x9
    800012c6:	05e90913          	addi	s2,s2,94 # 8000a320 <pid_lock>
    800012ca:	2781                	sext.w	a5,a5
    800012cc:	079e                	slli	a5,a5,0x7
    800012ce:	97ca                	add	a5,a5,s2
    800012d0:	0ac7a983          	lw	s3,172(a5)
    800012d4:	8792                	mv	a5,tp
  swtch(&p->context, &mycpu()->context);
    800012d6:	2781                	sext.w	a5,a5
    800012d8:	079e                	slli	a5,a5,0x7
    800012da:	07a1                	addi	a5,a5,8
    800012dc:	00009597          	auipc	a1,0x9
    800012e0:	07458593          	addi	a1,a1,116 # 8000a350 <cpus>
    800012e4:	95be                	add	a1,a1,a5
    800012e6:	06048513          	addi	a0,s1,96
    800012ea:	50c000ef          	jal	800017f6 <swtch>
    800012ee:	8792                	mv	a5,tp
  mycpu()->intena = intena;
    800012f0:	2781                	sext.w	a5,a5
    800012f2:	079e                	slli	a5,a5,0x7
    800012f4:	993e                	add	s2,s2,a5
    800012f6:	0b392623          	sw	s3,172(s2)
}
    800012fa:	70a2                	ld	ra,40(sp)
    800012fc:	7402                	ld	s0,32(sp)
    800012fe:	64e2                	ld	s1,24(sp)
    80001300:	6942                	ld	s2,16(sp)
    80001302:	69a2                	ld	s3,8(sp)
    80001304:	6145                	addi	sp,sp,48
    80001306:	8082                	ret
    panic("sched p->lock");
    80001308:	00006517          	auipc	a0,0x6
    8000130c:	ed050513          	addi	a0,a0,-304 # 800071d8 <etext+0x1d8>
    80001310:	32e040ef          	jal	8000563e <panic>
    panic("sched locks");
    80001314:	00006517          	auipc	a0,0x6
    80001318:	ed450513          	addi	a0,a0,-300 # 800071e8 <etext+0x1e8>
    8000131c:	322040ef          	jal	8000563e <panic>
    panic("sched running");
    80001320:	00006517          	auipc	a0,0x6
    80001324:	ed850513          	addi	a0,a0,-296 # 800071f8 <etext+0x1f8>
    80001328:	316040ef          	jal	8000563e <panic>
    panic("sched interruptible");
    8000132c:	00006517          	auipc	a0,0x6
    80001330:	edc50513          	addi	a0,a0,-292 # 80007208 <etext+0x208>
    80001334:	30a040ef          	jal	8000563e <panic>

0000000080001338 <yield>:
{
    80001338:	1101                	addi	sp,sp,-32
    8000133a:	ec06                	sd	ra,24(sp)
    8000133c:	e822                	sd	s0,16(sp)
    8000133e:	e426                	sd	s1,8(sp)
    80001340:	1000                	addi	s0,sp,32
  struct proc *p = myproc();
    80001342:	a45ff0ef          	jal	80000d86 <myproc>
    80001346:	84aa                	mv	s1,a0
  acquire(&p->lock);
    80001348:	634040ef          	jal	8000597c <acquire>
  p->state = RUNNABLE;
    8000134c:	478d                	li	a5,3
    8000134e:	cc9c                	sw	a5,24(s1)
  sched();
    80001350:	f2dff0ef          	jal	8000127c <sched>
  release(&p->lock);
    80001354:	8526                	mv	a0,s1
    80001356:	6ba040ef          	jal	80005a10 <release>
}
    8000135a:	60e2                	ld	ra,24(sp)
    8000135c:	6442                	ld	s0,16(sp)
    8000135e:	64a2                	ld	s1,8(sp)
    80001360:	6105                	addi	sp,sp,32
    80001362:	8082                	ret

0000000080001364 <sleep>:

// Atomically release lock and sleep on chan.
// Reacquires lock when awakened.
void
sleep(void *chan, struct spinlock *lk)
{
    80001364:	7179                	addi	sp,sp,-48
    80001366:	f406                	sd	ra,40(sp)
    80001368:	f022                	sd	s0,32(sp)
    8000136a:	ec26                	sd	s1,24(sp)
    8000136c:	e84a                	sd	s2,16(sp)
    8000136e:	e44e                	sd	s3,8(sp)
    80001370:	1800                	addi	s0,sp,48
    80001372:	89aa                	mv	s3,a0
    80001374:	892e                	mv	s2,a1
  struct proc *p = myproc();
    80001376:	a11ff0ef          	jal	80000d86 <myproc>
    8000137a:	84aa                	mv	s1,a0
  // Once we hold p->lock, we can be
  // guaranteed that we won't miss any wakeup
  // (wakeup locks p->lock),
  // so it's okay to release lk.

  acquire(&p->lock);  //DOC: sleeplock1
    8000137c:	600040ef          	jal	8000597c <acquire>
  release(lk);
    80001380:	854a                	mv	a0,s2
    80001382:	68e040ef          	jal	80005a10 <release>

  // Go to sleep.
  p->chan = chan;
    80001386:	0334b023          	sd	s3,32(s1)
  p->state = SLEEPING;
    8000138a:	4789                	li	a5,2
    8000138c:	cc9c                	sw	a5,24(s1)

  sched();
    8000138e:	eefff0ef          	jal	8000127c <sched>

  // Tidy up.
  p->chan = 0;
    80001392:	0204b023          	sd	zero,32(s1)

  // Reacquire original lock.
  release(&p->lock);
    80001396:	8526                	mv	a0,s1
    80001398:	678040ef          	jal	80005a10 <release>
  acquire(lk);
    8000139c:	854a                	mv	a0,s2
    8000139e:	5de040ef          	jal	8000597c <acquire>
}
    800013a2:	70a2                	ld	ra,40(sp)
    800013a4:	7402                	ld	s0,32(sp)
    800013a6:	64e2                	ld	s1,24(sp)
    800013a8:	6942                	ld	s2,16(sp)
    800013aa:	69a2                	ld	s3,8(sp)
    800013ac:	6145                	addi	sp,sp,48
    800013ae:	8082                	ret

00000000800013b0 <wakeup>:

// Wake up all processes sleeping on chan.
// Must be called without any p->lock.
void
wakeup(void *chan)
{
    800013b0:	7139                	addi	sp,sp,-64
    800013b2:	fc06                	sd	ra,56(sp)
    800013b4:	f822                	sd	s0,48(sp)
    800013b6:	f426                	sd	s1,40(sp)
    800013b8:	f04a                	sd	s2,32(sp)
    800013ba:	ec4e                	sd	s3,24(sp)
    800013bc:	e852                	sd	s4,16(sp)
    800013be:	e456                	sd	s5,8(sp)
    800013c0:	0080                	addi	s0,sp,64
    800013c2:	8a2a                	mv	s4,a0
  struct proc *p;

  for(p = proc; p < &proc[NPROC]; p++) {
    800013c4:	00009497          	auipc	s1,0x9
    800013c8:	38c48493          	addi	s1,s1,908 # 8000a750 <proc>
    if(p != myproc()){
      acquire(&p->lock);
      if(p->state == SLEEPING && p->chan == chan) {
    800013cc:	4989                	li	s3,2
        p->state = RUNNABLE;
    800013ce:	4a8d                	li	s5,3
  for(p = proc; p < &proc[NPROC]; p++) {
    800013d0:	0000f917          	auipc	s2,0xf
    800013d4:	d8090913          	addi	s2,s2,-640 # 80010150 <tickslock>
    800013d8:	a801                	j	800013e8 <wakeup+0x38>
      }
      release(&p->lock);
    800013da:	8526                	mv	a0,s1
    800013dc:	634040ef          	jal	80005a10 <release>
  for(p = proc; p < &proc[NPROC]; p++) {
    800013e0:	16848493          	addi	s1,s1,360
    800013e4:	03248263          	beq	s1,s2,80001408 <wakeup+0x58>
    if(p != myproc()){
    800013e8:	99fff0ef          	jal	80000d86 <myproc>
    800013ec:	fe950ae3          	beq	a0,s1,800013e0 <wakeup+0x30>
      acquire(&p->lock);
    800013f0:	8526                	mv	a0,s1
    800013f2:	58a040ef          	jal	8000597c <acquire>
      if(p->state == SLEEPING && p->chan == chan) {
    800013f6:	4c9c                	lw	a5,24(s1)
    800013f8:	ff3791e3          	bne	a5,s3,800013da <wakeup+0x2a>
    800013fc:	709c                	ld	a5,32(s1)
    800013fe:	fd479ee3          	bne	a5,s4,800013da <wakeup+0x2a>
        p->state = RUNNABLE;
    80001402:	0154ac23          	sw	s5,24(s1)
    80001406:	bfd1                	j	800013da <wakeup+0x2a>
    }
  }
}
    80001408:	70e2                	ld	ra,56(sp)
    8000140a:	7442                	ld	s0,48(sp)
    8000140c:	74a2                	ld	s1,40(sp)
    8000140e:	7902                	ld	s2,32(sp)
    80001410:	69e2                	ld	s3,24(sp)
    80001412:	6a42                	ld	s4,16(sp)
    80001414:	6aa2                	ld	s5,8(sp)
    80001416:	6121                	addi	sp,sp,64
    80001418:	8082                	ret

000000008000141a <reparent>:
{
    8000141a:	7179                	addi	sp,sp,-48
    8000141c:	f406                	sd	ra,40(sp)
    8000141e:	f022                	sd	s0,32(sp)
    80001420:	ec26                	sd	s1,24(sp)
    80001422:	e84a                	sd	s2,16(sp)
    80001424:	e44e                	sd	s3,8(sp)
    80001426:	e052                	sd	s4,0(sp)
    80001428:	1800                	addi	s0,sp,48
    8000142a:	892a                	mv	s2,a0
  for(pp = proc; pp < &proc[NPROC]; pp++){
    8000142c:	00009497          	auipc	s1,0x9
    80001430:	32448493          	addi	s1,s1,804 # 8000a750 <proc>
      pp->parent = initproc;
    80001434:	00009a17          	auipc	s4,0x9
    80001438:	eaca0a13          	addi	s4,s4,-340 # 8000a2e0 <initproc>
  for(pp = proc; pp < &proc[NPROC]; pp++){
    8000143c:	0000f997          	auipc	s3,0xf
    80001440:	d1498993          	addi	s3,s3,-748 # 80010150 <tickslock>
    80001444:	a029                	j	8000144e <reparent+0x34>
    80001446:	16848493          	addi	s1,s1,360
    8000144a:	01348b63          	beq	s1,s3,80001460 <reparent+0x46>
    if(pp->parent == p){
    8000144e:	7c9c                	ld	a5,56(s1)
    80001450:	ff279be3          	bne	a5,s2,80001446 <reparent+0x2c>
      pp->parent = initproc;
    80001454:	000a3503          	ld	a0,0(s4)
    80001458:	fc88                	sd	a0,56(s1)
      wakeup(initproc);
    8000145a:	f57ff0ef          	jal	800013b0 <wakeup>
    8000145e:	b7e5                	j	80001446 <reparent+0x2c>
}
    80001460:	70a2                	ld	ra,40(sp)
    80001462:	7402                	ld	s0,32(sp)
    80001464:	64e2                	ld	s1,24(sp)
    80001466:	6942                	ld	s2,16(sp)
    80001468:	69a2                	ld	s3,8(sp)
    8000146a:	6a02                	ld	s4,0(sp)
    8000146c:	6145                	addi	sp,sp,48
    8000146e:	8082                	ret

0000000080001470 <exit>:
{
    80001470:	7179                	addi	sp,sp,-48
    80001472:	f406                	sd	ra,40(sp)
    80001474:	f022                	sd	s0,32(sp)
    80001476:	ec26                	sd	s1,24(sp)
    80001478:	e84a                	sd	s2,16(sp)
    8000147a:	e44e                	sd	s3,8(sp)
    8000147c:	e052                	sd	s4,0(sp)
    8000147e:	1800                	addi	s0,sp,48
    80001480:	8a2a                	mv	s4,a0
  struct proc *p = myproc();
    80001482:	905ff0ef          	jal	80000d86 <myproc>
    80001486:	89aa                	mv	s3,a0
  if(p == initproc)
    80001488:	00009797          	auipc	a5,0x9
    8000148c:	e587b783          	ld	a5,-424(a5) # 8000a2e0 <initproc>
    80001490:	0d050493          	addi	s1,a0,208
    80001494:	15050913          	addi	s2,a0,336
    80001498:	00a79b63          	bne	a5,a0,800014ae <exit+0x3e>
    panic("init exiting");
    8000149c:	00006517          	auipc	a0,0x6
    800014a0:	d8450513          	addi	a0,a0,-636 # 80007220 <etext+0x220>
    800014a4:	19a040ef          	jal	8000563e <panic>
  for(int fd = 0; fd < NOFILE; fd++){
    800014a8:	04a1                	addi	s1,s1,8
    800014aa:	01248963          	beq	s1,s2,800014bc <exit+0x4c>
    if(p->ofile[fd]){
    800014ae:	6088                	ld	a0,0(s1)
    800014b0:	dd65                	beqz	a0,800014a8 <exit+0x38>
      fileclose(f);
    800014b2:	77d010ef          	jal	8000342e <fileclose>
      p->ofile[fd] = 0;
    800014b6:	0004b023          	sd	zero,0(s1)
    800014ba:	b7fd                	j	800014a8 <exit+0x38>
  begin_op();
    800014bc:	341010ef          	jal	80002ffc <begin_op>
  iput(p->cwd);
    800014c0:	1509b503          	ld	a0,336(s3)
    800014c4:	3fa010ef          	jal	800028be <iput>
  end_op();
    800014c8:	3a5010ef          	jal	8000306c <end_op>
  p->cwd = 0;
    800014cc:	1409b823          	sd	zero,336(s3)
  acquire(&wait_lock);
    800014d0:	00009517          	auipc	a0,0x9
    800014d4:	e6850513          	addi	a0,a0,-408 # 8000a338 <wait_lock>
    800014d8:	4a4040ef          	jal	8000597c <acquire>
  reparent(p);
    800014dc:	854e                	mv	a0,s3
    800014de:	f3dff0ef          	jal	8000141a <reparent>
  wakeup(p->parent);
    800014e2:	0389b503          	ld	a0,56(s3)
    800014e6:	ecbff0ef          	jal	800013b0 <wakeup>
  acquire(&p->lock);
    800014ea:	854e                	mv	a0,s3
    800014ec:	490040ef          	jal	8000597c <acquire>
  p->xstate = status;
    800014f0:	0349a623          	sw	s4,44(s3)
  p->state = ZOMBIE;
    800014f4:	4795                	li	a5,5
    800014f6:	00f9ac23          	sw	a5,24(s3)
  release(&wait_lock);
    800014fa:	00009517          	auipc	a0,0x9
    800014fe:	e3e50513          	addi	a0,a0,-450 # 8000a338 <wait_lock>
    80001502:	50e040ef          	jal	80005a10 <release>
  sched();
    80001506:	d77ff0ef          	jal	8000127c <sched>
  panic("zombie exit");
    8000150a:	00006517          	auipc	a0,0x6
    8000150e:	d2650513          	addi	a0,a0,-730 # 80007230 <etext+0x230>
    80001512:	12c040ef          	jal	8000563e <panic>

0000000080001516 <kill>:
// Kill the process with the given pid.
// The victim won't exit until it tries to return
// to user space (see usertrap() in trap.c).
int
kill(int pid)
{
    80001516:	7179                	addi	sp,sp,-48
    80001518:	f406                	sd	ra,40(sp)
    8000151a:	f022                	sd	s0,32(sp)
    8000151c:	ec26                	sd	s1,24(sp)
    8000151e:	e84a                	sd	s2,16(sp)
    80001520:	e44e                	sd	s3,8(sp)
    80001522:	1800                	addi	s0,sp,48
    80001524:	892a                	mv	s2,a0
  struct proc *p;

  for(p = proc; p < &proc[NPROC]; p++){
    80001526:	00009497          	auipc	s1,0x9
    8000152a:	22a48493          	addi	s1,s1,554 # 8000a750 <proc>
    8000152e:	0000f997          	auipc	s3,0xf
    80001532:	c2298993          	addi	s3,s3,-990 # 80010150 <tickslock>
    acquire(&p->lock);
    80001536:	8526                	mv	a0,s1
    80001538:	444040ef          	jal	8000597c <acquire>
    if(p->pid == pid){
    8000153c:	589c                	lw	a5,48(s1)
    8000153e:	01278b63          	beq	a5,s2,80001554 <kill+0x3e>
        p->state = RUNNABLE;
      }
      release(&p->lock);
      return 0;
    }
    release(&p->lock);
    80001542:	8526                	mv	a0,s1
    80001544:	4cc040ef          	jal	80005a10 <release>
  for(p = proc; p < &proc[NPROC]; p++){
    80001548:	16848493          	addi	s1,s1,360
    8000154c:	ff3495e3          	bne	s1,s3,80001536 <kill+0x20>
  }
  return -1;
    80001550:	557d                	li	a0,-1
    80001552:	a819                	j	80001568 <kill+0x52>
      p->killed = 1;
    80001554:	4785                	li	a5,1
    80001556:	d49c                	sw	a5,40(s1)
      if(p->state == SLEEPING){
    80001558:	4c98                	lw	a4,24(s1)
    8000155a:	4789                	li	a5,2
    8000155c:	00f70d63          	beq	a4,a5,80001576 <kill+0x60>
      release(&p->lock);
    80001560:	8526                	mv	a0,s1
    80001562:	4ae040ef          	jal	80005a10 <release>
      return 0;
    80001566:	4501                	li	a0,0
}
    80001568:	70a2                	ld	ra,40(sp)
    8000156a:	7402                	ld	s0,32(sp)
    8000156c:	64e2                	ld	s1,24(sp)
    8000156e:	6942                	ld	s2,16(sp)
    80001570:	69a2                	ld	s3,8(sp)
    80001572:	6145                	addi	sp,sp,48
    80001574:	8082                	ret
        p->state = RUNNABLE;
    80001576:	478d                	li	a5,3
    80001578:	cc9c                	sw	a5,24(s1)
    8000157a:	b7dd                	j	80001560 <kill+0x4a>

000000008000157c <setkilled>:

void
setkilled(struct proc *p)
{
    8000157c:	1101                	addi	sp,sp,-32
    8000157e:	ec06                	sd	ra,24(sp)
    80001580:	e822                	sd	s0,16(sp)
    80001582:	e426                	sd	s1,8(sp)
    80001584:	1000                	addi	s0,sp,32
    80001586:	84aa                	mv	s1,a0
  acquire(&p->lock);
    80001588:	3f4040ef          	jal	8000597c <acquire>
  p->killed = 1;
    8000158c:	4785                	li	a5,1
    8000158e:	d49c                	sw	a5,40(s1)
  release(&p->lock);
    80001590:	8526                	mv	a0,s1
    80001592:	47e040ef          	jal	80005a10 <release>
}
    80001596:	60e2                	ld	ra,24(sp)
    80001598:	6442                	ld	s0,16(sp)
    8000159a:	64a2                	ld	s1,8(sp)
    8000159c:	6105                	addi	sp,sp,32
    8000159e:	8082                	ret

00000000800015a0 <killed>:

int
killed(struct proc *p)
{
    800015a0:	1101                	addi	sp,sp,-32
    800015a2:	ec06                	sd	ra,24(sp)
    800015a4:	e822                	sd	s0,16(sp)
    800015a6:	e426                	sd	s1,8(sp)
    800015a8:	e04a                	sd	s2,0(sp)
    800015aa:	1000                	addi	s0,sp,32
    800015ac:	84aa                	mv	s1,a0
  int k;
  
  acquire(&p->lock);
    800015ae:	3ce040ef          	jal	8000597c <acquire>
  k = p->killed;
    800015b2:	549c                	lw	a5,40(s1)
    800015b4:	893e                	mv	s2,a5
  release(&p->lock);
    800015b6:	8526                	mv	a0,s1
    800015b8:	458040ef          	jal	80005a10 <release>
  return k;
}
    800015bc:	854a                	mv	a0,s2
    800015be:	60e2                	ld	ra,24(sp)
    800015c0:	6442                	ld	s0,16(sp)
    800015c2:	64a2                	ld	s1,8(sp)
    800015c4:	6902                	ld	s2,0(sp)
    800015c6:	6105                	addi	sp,sp,32
    800015c8:	8082                	ret

00000000800015ca <wait>:
{
    800015ca:	715d                	addi	sp,sp,-80
    800015cc:	e486                	sd	ra,72(sp)
    800015ce:	e0a2                	sd	s0,64(sp)
    800015d0:	fc26                	sd	s1,56(sp)
    800015d2:	f84a                	sd	s2,48(sp)
    800015d4:	f44e                	sd	s3,40(sp)
    800015d6:	f052                	sd	s4,32(sp)
    800015d8:	ec56                	sd	s5,24(sp)
    800015da:	e85a                	sd	s6,16(sp)
    800015dc:	e45e                	sd	s7,8(sp)
    800015de:	0880                	addi	s0,sp,80
    800015e0:	8baa                	mv	s7,a0
  struct proc *p = myproc();
    800015e2:	fa4ff0ef          	jal	80000d86 <myproc>
    800015e6:	892a                	mv	s2,a0
  acquire(&wait_lock);
    800015e8:	00009517          	auipc	a0,0x9
    800015ec:	d5050513          	addi	a0,a0,-688 # 8000a338 <wait_lock>
    800015f0:	38c040ef          	jal	8000597c <acquire>
        if(pp->state == ZOMBIE){
    800015f4:	4a15                	li	s4,5
        havekids = 1;
    800015f6:	4a85                	li	s5,1
    for(pp = proc; pp < &proc[NPROC]; pp++){
    800015f8:	0000f997          	auipc	s3,0xf
    800015fc:	b5898993          	addi	s3,s3,-1192 # 80010150 <tickslock>
    sleep(p, &wait_lock);  //DOC: wait-sleep
    80001600:	00009b17          	auipc	s6,0x9
    80001604:	d38b0b13          	addi	s6,s6,-712 # 8000a338 <wait_lock>
    80001608:	a869                	j	800016a2 <wait+0xd8>
          pid = pp->pid;
    8000160a:	0304a983          	lw	s3,48(s1)
          if(addr != 0 && copyout(p->pagetable, addr, (char *)&pp->xstate,
    8000160e:	000b8c63          	beqz	s7,80001626 <wait+0x5c>
    80001612:	4691                	li	a3,4
    80001614:	02c48613          	addi	a2,s1,44
    80001618:	85de                	mv	a1,s7
    8000161a:	05093503          	ld	a0,80(s2)
    8000161e:	be4ff0ef          	jal	80000a02 <copyout>
    80001622:	02054a63          	bltz	a0,80001656 <wait+0x8c>
          freeproc(pp);
    80001626:	8526                	mv	a0,s1
    80001628:	8d3ff0ef          	jal	80000efa <freeproc>
          release(&pp->lock);
    8000162c:	8526                	mv	a0,s1
    8000162e:	3e2040ef          	jal	80005a10 <release>
          release(&wait_lock);
    80001632:	00009517          	auipc	a0,0x9
    80001636:	d0650513          	addi	a0,a0,-762 # 8000a338 <wait_lock>
    8000163a:	3d6040ef          	jal	80005a10 <release>
}
    8000163e:	854e                	mv	a0,s3
    80001640:	60a6                	ld	ra,72(sp)
    80001642:	6406                	ld	s0,64(sp)
    80001644:	74e2                	ld	s1,56(sp)
    80001646:	7942                	ld	s2,48(sp)
    80001648:	79a2                	ld	s3,40(sp)
    8000164a:	7a02                	ld	s4,32(sp)
    8000164c:	6ae2                	ld	s5,24(sp)
    8000164e:	6b42                	ld	s6,16(sp)
    80001650:	6ba2                	ld	s7,8(sp)
    80001652:	6161                	addi	sp,sp,80
    80001654:	8082                	ret
            release(&pp->lock);
    80001656:	8526                	mv	a0,s1
    80001658:	3b8040ef          	jal	80005a10 <release>
            release(&wait_lock);
    8000165c:	00009517          	auipc	a0,0x9
    80001660:	cdc50513          	addi	a0,a0,-804 # 8000a338 <wait_lock>
    80001664:	3ac040ef          	jal	80005a10 <release>
            return -1;
    80001668:	59fd                	li	s3,-1
    8000166a:	bfd1                	j	8000163e <wait+0x74>
    for(pp = proc; pp < &proc[NPROC]; pp++){
    8000166c:	16848493          	addi	s1,s1,360
    80001670:	03348063          	beq	s1,s3,80001690 <wait+0xc6>
      if(pp->parent == p){
    80001674:	7c9c                	ld	a5,56(s1)
    80001676:	ff279be3          	bne	a5,s2,8000166c <wait+0xa2>
        acquire(&pp->lock);
    8000167a:	8526                	mv	a0,s1
    8000167c:	300040ef          	jal	8000597c <acquire>
        if(pp->state == ZOMBIE){
    80001680:	4c9c                	lw	a5,24(s1)
    80001682:	f94784e3          	beq	a5,s4,8000160a <wait+0x40>
        release(&pp->lock);
    80001686:	8526                	mv	a0,s1
    80001688:	388040ef          	jal	80005a10 <release>
        havekids = 1;
    8000168c:	8756                	mv	a4,s5
    8000168e:	bff9                	j	8000166c <wait+0xa2>
    if(!havekids || killed(p)){
    80001690:	cf19                	beqz	a4,800016ae <wait+0xe4>
    80001692:	854a                	mv	a0,s2
    80001694:	f0dff0ef          	jal	800015a0 <killed>
    80001698:	e919                	bnez	a0,800016ae <wait+0xe4>
    sleep(p, &wait_lock);  //DOC: wait-sleep
    8000169a:	85da                	mv	a1,s6
    8000169c:	854a                	mv	a0,s2
    8000169e:	cc7ff0ef          	jal	80001364 <sleep>
    havekids = 0;
    800016a2:	4701                	li	a4,0
    for(pp = proc; pp < &proc[NPROC]; pp++){
    800016a4:	00009497          	auipc	s1,0x9
    800016a8:	0ac48493          	addi	s1,s1,172 # 8000a750 <proc>
    800016ac:	b7e1                	j	80001674 <wait+0xaa>
      release(&wait_lock);
    800016ae:	00009517          	auipc	a0,0x9
    800016b2:	c8a50513          	addi	a0,a0,-886 # 8000a338 <wait_lock>
    800016b6:	35a040ef          	jal	80005a10 <release>
      return -1;
    800016ba:	59fd                	li	s3,-1
    800016bc:	b749                	j	8000163e <wait+0x74>

00000000800016be <either_copyout>:
// Copy to either a user address, or kernel address,
// depending on usr_dst.
// Returns 0 on success, -1 on error.
int
either_copyout(int user_dst, uint64 dst, void *src, uint64 len)
{
    800016be:	7179                	addi	sp,sp,-48
    800016c0:	f406                	sd	ra,40(sp)
    800016c2:	f022                	sd	s0,32(sp)
    800016c4:	ec26                	sd	s1,24(sp)
    800016c6:	e84a                	sd	s2,16(sp)
    800016c8:	e44e                	sd	s3,8(sp)
    800016ca:	e052                	sd	s4,0(sp)
    800016cc:	1800                	addi	s0,sp,48
    800016ce:	84aa                	mv	s1,a0
    800016d0:	8a2e                	mv	s4,a1
    800016d2:	89b2                	mv	s3,a2
    800016d4:	8936                	mv	s2,a3
  struct proc *p = myproc();
    800016d6:	eb0ff0ef          	jal	80000d86 <myproc>
  if(user_dst){
    800016da:	cc99                	beqz	s1,800016f8 <either_copyout+0x3a>
    return copyout(p->pagetable, dst, src, len);
    800016dc:	86ca                	mv	a3,s2
    800016de:	864e                	mv	a2,s3
    800016e0:	85d2                	mv	a1,s4
    800016e2:	6928                	ld	a0,80(a0)
    800016e4:	b1eff0ef          	jal	80000a02 <copyout>
  } else {
    memmove((char *)dst, src, len);
    return 0;
  }
}
    800016e8:	70a2                	ld	ra,40(sp)
    800016ea:	7402                	ld	s0,32(sp)
    800016ec:	64e2                	ld	s1,24(sp)
    800016ee:	6942                	ld	s2,16(sp)
    800016f0:	69a2                	ld	s3,8(sp)
    800016f2:	6a02                	ld	s4,0(sp)
    800016f4:	6145                	addi	sp,sp,48
    800016f6:	8082                	ret
    memmove((char *)dst, src, len);
    800016f8:	0009061b          	sext.w	a2,s2
    800016fc:	85ce                	mv	a1,s3
    800016fe:	8552                	mv	a0,s4
    80001700:	abffe0ef          	jal	800001be <memmove>
    return 0;
    80001704:	8526                	mv	a0,s1
    80001706:	b7cd                	j	800016e8 <either_copyout+0x2a>

0000000080001708 <either_copyin>:
// Copy from either a user address, or kernel address,
// depending on usr_src.
// Returns 0 on success, -1 on error.
int
either_copyin(void *dst, int user_src, uint64 src, uint64 len)
{
    80001708:	7179                	addi	sp,sp,-48
    8000170a:	f406                	sd	ra,40(sp)
    8000170c:	f022                	sd	s0,32(sp)
    8000170e:	ec26                	sd	s1,24(sp)
    80001710:	e84a                	sd	s2,16(sp)
    80001712:	e44e                	sd	s3,8(sp)
    80001714:	e052                	sd	s4,0(sp)
    80001716:	1800                	addi	s0,sp,48
    80001718:	8a2a                	mv	s4,a0
    8000171a:	84ae                	mv	s1,a1
    8000171c:	89b2                	mv	s3,a2
    8000171e:	8936                	mv	s2,a3
  struct proc *p = myproc();
    80001720:	e66ff0ef          	jal	80000d86 <myproc>
  if(user_src){
    80001724:	cc99                	beqz	s1,80001742 <either_copyin+0x3a>
    return copyin(p->pagetable, dst, src, len);
    80001726:	86ca                	mv	a3,s2
    80001728:	864e                	mv	a2,s3
    8000172a:	85d2                	mv	a1,s4
    8000172c:	6928                	ld	a0,80(a0)
    8000172e:	b84ff0ef          	jal	80000ab2 <copyin>
  } else {
    memmove(dst, (char*)src, len);
    return 0;
  }
}
    80001732:	70a2                	ld	ra,40(sp)
    80001734:	7402                	ld	s0,32(sp)
    80001736:	64e2                	ld	s1,24(sp)
    80001738:	6942                	ld	s2,16(sp)
    8000173a:	69a2                	ld	s3,8(sp)
    8000173c:	6a02                	ld	s4,0(sp)
    8000173e:	6145                	addi	sp,sp,48
    80001740:	8082                	ret
    memmove(dst, (char*)src, len);
    80001742:	0009061b          	sext.w	a2,s2
    80001746:	85ce                	mv	a1,s3
    80001748:	8552                	mv	a0,s4
    8000174a:	a75fe0ef          	jal	800001be <memmove>
    return 0;
    8000174e:	8526                	mv	a0,s1
    80001750:	b7cd                	j	80001732 <either_copyin+0x2a>

0000000080001752 <procdump>:
// Print a process listing to console.  For debugging.
// Runs when user types ^P on console.
// No lock to avoid wedging a stuck machine further.
void
procdump(void)
{
    80001752:	715d                	addi	sp,sp,-80
    80001754:	e486                	sd	ra,72(sp)
    80001756:	e0a2                	sd	s0,64(sp)
    80001758:	fc26                	sd	s1,56(sp)
    8000175a:	f84a                	sd	s2,48(sp)
    8000175c:	f44e                	sd	s3,40(sp)
    8000175e:	f052                	sd	s4,32(sp)
    80001760:	ec56                	sd	s5,24(sp)
    80001762:	e85a                	sd	s6,16(sp)
    80001764:	e45e                	sd	s7,8(sp)
    80001766:	0880                	addi	s0,sp,80
  [ZOMBIE]    "zombie"
  };
  struct proc *p;
  char *state;

  printf("\n");
    80001768:	00006517          	auipc	a0,0x6
    8000176c:	8b050513          	addi	a0,a0,-1872 # 80007018 <etext+0x18>
    80001770:	3bf030ef          	jal	8000532e <printf>
  for(p = proc; p < &proc[NPROC]; p++){
    80001774:	00009497          	auipc	s1,0x9
    80001778:	13448493          	addi	s1,s1,308 # 8000a8a8 <proc+0x158>
    8000177c:	0000f917          	auipc	s2,0xf
    80001780:	b2c90913          	addi	s2,s2,-1236 # 800102a8 <bcache+0x140>
    if(p->state == UNUSED)
      continue;
    if(p->state >= 0 && p->state < NELEM(states) && states[p->state])
    80001784:	4b15                	li	s6,5
      state = states[p->state];
    else
      state = "???";
    80001786:	00006997          	auipc	s3,0x6
    8000178a:	aba98993          	addi	s3,s3,-1350 # 80007240 <etext+0x240>
    printf("%d %s %s", p->pid, state, p->name);
    8000178e:	00006a97          	auipc	s5,0x6
    80001792:	abaa8a93          	addi	s5,s5,-1350 # 80007248 <etext+0x248>
    printf("\n");
    80001796:	00006a17          	auipc	s4,0x6
    8000179a:	882a0a13          	addi	s4,s4,-1918 # 80007018 <etext+0x18>
    if(p->state >= 0 && p->state < NELEM(states) && states[p->state])
    8000179e:	00006b97          	auipc	s7,0x6
    800017a2:	fd2b8b93          	addi	s7,s7,-46 # 80007770 <states.0>
    800017a6:	a829                	j	800017c0 <procdump+0x6e>
    printf("%d %s %s", p->pid, state, p->name);
    800017a8:	ed86a583          	lw	a1,-296(a3)
    800017ac:	8556                	mv	a0,s5
    800017ae:	381030ef          	jal	8000532e <printf>
    printf("\n");
    800017b2:	8552                	mv	a0,s4
    800017b4:	37b030ef          	jal	8000532e <printf>
  for(p = proc; p < &proc[NPROC]; p++){
    800017b8:	16848493          	addi	s1,s1,360
    800017bc:	03248263          	beq	s1,s2,800017e0 <procdump+0x8e>
    if(p->state == UNUSED)
    800017c0:	86a6                	mv	a3,s1
    800017c2:	ec04a783          	lw	a5,-320(s1)
    800017c6:	dbed                	beqz	a5,800017b8 <procdump+0x66>
      state = "???";
    800017c8:	864e                	mv	a2,s3
    if(p->state >= 0 && p->state < NELEM(states) && states[p->state])
    800017ca:	fcfb6fe3          	bltu	s6,a5,800017a8 <procdump+0x56>
    800017ce:	02079713          	slli	a4,a5,0x20
    800017d2:	01d75793          	srli	a5,a4,0x1d
    800017d6:	97de                	add	a5,a5,s7
    800017d8:	6390                	ld	a2,0(a5)
    800017da:	f679                	bnez	a2,800017a8 <procdump+0x56>
      state = "???";
    800017dc:	864e                	mv	a2,s3
    800017de:	b7e9                	j	800017a8 <procdump+0x56>
  }
}
    800017e0:	60a6                	ld	ra,72(sp)
    800017e2:	6406                	ld	s0,64(sp)
    800017e4:	74e2                	ld	s1,56(sp)
    800017e6:	7942                	ld	s2,48(sp)
    800017e8:	79a2                	ld	s3,40(sp)
    800017ea:	7a02                	ld	s4,32(sp)
    800017ec:	6ae2                	ld	s5,24(sp)
    800017ee:	6b42                	ld	s6,16(sp)
    800017f0:	6ba2                	ld	s7,8(sp)
    800017f2:	6161                	addi	sp,sp,80
    800017f4:	8082                	ret

00000000800017f6 <swtch>:
    800017f6:	00153023          	sd	ra,0(a0)
    800017fa:	00253423          	sd	sp,8(a0)
    800017fe:	e900                	sd	s0,16(a0)
    80001800:	ed04                	sd	s1,24(a0)
    80001802:	03253023          	sd	s2,32(a0)
    80001806:	03353423          	sd	s3,40(a0)
    8000180a:	03453823          	sd	s4,48(a0)
    8000180e:	03553c23          	sd	s5,56(a0)
    80001812:	05653023          	sd	s6,64(a0)
    80001816:	05753423          	sd	s7,72(a0)
    8000181a:	05853823          	sd	s8,80(a0)
    8000181e:	05953c23          	sd	s9,88(a0)
    80001822:	07a53023          	sd	s10,96(a0)
    80001826:	07b53423          	sd	s11,104(a0)
    8000182a:	0005b083          	ld	ra,0(a1)
    8000182e:	0085b103          	ld	sp,8(a1)
    80001832:	6980                	ld	s0,16(a1)
    80001834:	6d84                	ld	s1,24(a1)
    80001836:	0205b903          	ld	s2,32(a1)
    8000183a:	0285b983          	ld	s3,40(a1)
    8000183e:	0305ba03          	ld	s4,48(a1)
    80001842:	0385ba83          	ld	s5,56(a1)
    80001846:	0405bb03          	ld	s6,64(a1)
    8000184a:	0485bb83          	ld	s7,72(a1)
    8000184e:	0505bc03          	ld	s8,80(a1)
    80001852:	0585bc83          	ld	s9,88(a1)
    80001856:	0605bd03          	ld	s10,96(a1)
    8000185a:	0685bd83          	ld	s11,104(a1)
    8000185e:	8082                	ret

0000000080001860 <trapinit>:

extern int devintr();

void
trapinit(void)
{
    80001860:	1141                	addi	sp,sp,-16
    80001862:	e406                	sd	ra,8(sp)
    80001864:	e022                	sd	s0,0(sp)
    80001866:	0800                	addi	s0,sp,16
  initlock(&tickslock, "time");
    80001868:	00006597          	auipc	a1,0x6
    8000186c:	a2058593          	addi	a1,a1,-1504 # 80007288 <etext+0x288>
    80001870:	0000f517          	auipc	a0,0xf
    80001874:	8e050513          	addi	a0,a0,-1824 # 80010150 <tickslock>
    80001878:	07a040ef          	jal	800058f2 <initlock>
}
    8000187c:	60a2                	ld	ra,8(sp)
    8000187e:	6402                	ld	s0,0(sp)
    80001880:	0141                	addi	sp,sp,16
    80001882:	8082                	ret

0000000080001884 <trapinithart>:

// set up to take exceptions and traps while in the kernel.
void
trapinithart(void)
{
    80001884:	1141                	addi	sp,sp,-16
    80001886:	e406                	sd	ra,8(sp)
    80001888:	e022                	sd	s0,0(sp)
    8000188a:	0800                	addi	s0,sp,16
  asm volatile("csrw stvec, %0" : : "r" (x));
    8000188c:	00003797          	auipc	a5,0x3
    80001890:	00478793          	addi	a5,a5,4 # 80004890 <kernelvec>
    80001894:	10579073          	csrw	stvec,a5
  w_stvec((uint64)kernelvec);
}
    80001898:	60a2                	ld	ra,8(sp)
    8000189a:	6402                	ld	s0,0(sp)
    8000189c:	0141                	addi	sp,sp,16
    8000189e:	8082                	ret

00000000800018a0 <usertrapret>:
//
// return to user space
//
void
usertrapret(void)
{
    800018a0:	1141                	addi	sp,sp,-16
    800018a2:	e406                	sd	ra,8(sp)
    800018a4:	e022                	sd	s0,0(sp)
    800018a6:	0800                	addi	s0,sp,16
  struct proc *p = myproc();
    800018a8:	cdeff0ef          	jal	80000d86 <myproc>
  asm volatile("csrr %0, sstatus" : "=r" (x) );
    800018ac:	100027f3          	csrr	a5,sstatus
  w_sstatus(r_sstatus() & ~SSTATUS_SIE);
    800018b0:	9bf5                	andi	a5,a5,-3
  asm volatile("csrw sstatus, %0" : : "r" (x));
    800018b2:	10079073          	csrw	sstatus,a5
  // kerneltrap() to usertrap(), so turn off interrupts until
  // we're back in user space, where usertrap() is correct.
  intr_off();

  // send syscalls, interrupts, and exceptions to uservec in trampoline.S
  uint64 trampoline_uservec = TRAMPOLINE + (uservec - trampoline);
    800018b6:	00004697          	auipc	a3,0x4
    800018ba:	74a68693          	addi	a3,a3,1866 # 80006000 <_trampoline>
    800018be:	00004717          	auipc	a4,0x4
    800018c2:	74270713          	addi	a4,a4,1858 # 80006000 <_trampoline>
    800018c6:	8f15                	sub	a4,a4,a3
    800018c8:	040007b7          	lui	a5,0x4000
    800018cc:	17fd                	addi	a5,a5,-1 # 3ffffff <_entry-0x7c000001>
    800018ce:	07b2                	slli	a5,a5,0xc
    800018d0:	973e                	add	a4,a4,a5
  asm volatile("csrw stvec, %0" : : "r" (x));
    800018d2:	10571073          	csrw	stvec,a4
  w_stvec(trampoline_uservec);

  // set up trapframe values that uservec will need when
  // the process next traps into the kernel.
  p->trapframe->kernel_satp = r_satp();         // kernel page table
    800018d6:	6d38                	ld	a4,88(a0)
  asm volatile("csrr %0, satp" : "=r" (x) );
    800018d8:	18002673          	csrr	a2,satp
    800018dc:	e310                	sd	a2,0(a4)
  p->trapframe->kernel_sp = p->kstack + PGSIZE; // process's kernel stack
    800018de:	6d30                	ld	a2,88(a0)
    800018e0:	6138                	ld	a4,64(a0)
    800018e2:	6585                	lui	a1,0x1
    800018e4:	972e                	add	a4,a4,a1
    800018e6:	e618                	sd	a4,8(a2)
  p->trapframe->kernel_trap = (uint64)usertrap;
    800018e8:	6d38                	ld	a4,88(a0)
    800018ea:	00000617          	auipc	a2,0x0
    800018ee:	11460613          	addi	a2,a2,276 # 800019fe <usertrap>
    800018f2:	eb10                	sd	a2,16(a4)
  p->trapframe->kernel_hartid = r_tp();         // hartid for cpuid()
    800018f4:	6d38                	ld	a4,88(a0)
  asm volatile("mv %0, tp" : "=r" (x) );
    800018f6:	8612                	mv	a2,tp
    800018f8:	f310                	sd	a2,32(a4)
  asm volatile("csrr %0, sstatus" : "=r" (x) );
    800018fa:	10002773          	csrr	a4,sstatus
  // set up the registers that trampoline.S's sret will use
  // to get to user space.
  
  // set S Previous Privilege mode to User.
  unsigned long x = r_sstatus();
  x &= ~SSTATUS_SPP; // clear SPP to 0 for user mode
    800018fe:	eff77713          	andi	a4,a4,-257
  x |= SSTATUS_SPIE; // enable interrupts in user mode
    80001902:	02076713          	ori	a4,a4,32
  asm volatile("csrw sstatus, %0" : : "r" (x));
    80001906:	10071073          	csrw	sstatus,a4
  w_sstatus(x);

  // set S Exception Program Counter to the saved user pc.
  w_sepc(p->trapframe->epc);
    8000190a:	6d38                	ld	a4,88(a0)
  asm volatile("csrw sepc, %0" : : "r" (x));
    8000190c:	6f18                	ld	a4,24(a4)
    8000190e:	14171073          	csrw	sepc,a4

  // tell trampoline.S the user page table to switch to.
  uint64 satp = MAKE_SATP(p->pagetable);
    80001912:	6928                	ld	a0,80(a0)
    80001914:	8131                	srli	a0,a0,0xc

  // jump to userret in trampoline.S at the top of memory, which 
  // switches to the user page table, restores user registers,
  // and switches to user mode with sret.
  uint64 trampoline_userret = TRAMPOLINE + (userret - trampoline);
    80001916:	00004717          	auipc	a4,0x4
    8000191a:	78670713          	addi	a4,a4,1926 # 8000609c <userret>
    8000191e:	8f15                	sub	a4,a4,a3
    80001920:	97ba                	add	a5,a5,a4
  ((void (*)(uint64))trampoline_userret)(satp);
    80001922:	577d                	li	a4,-1
    80001924:	177e                	slli	a4,a4,0x3f
    80001926:	8d59                	or	a0,a0,a4
    80001928:	9782                	jalr	a5
}
    8000192a:	60a2                	ld	ra,8(sp)
    8000192c:	6402                	ld	s0,0(sp)
    8000192e:	0141                	addi	sp,sp,16
    80001930:	8082                	ret

0000000080001932 <clockintr>:
  w_sstatus(sstatus);
}

void
clockintr()
{
    80001932:	1141                	addi	sp,sp,-16
    80001934:	e406                	sd	ra,8(sp)
    80001936:	e022                	sd	s0,0(sp)
    80001938:	0800                	addi	s0,sp,16
  if(cpuid() == 0){
    8000193a:	c18ff0ef          	jal	80000d52 <cpuid>
    8000193e:	cd11                	beqz	a0,8000195a <clockintr+0x28>
  asm volatile("csrr %0, time" : "=r" (x) );
    80001940:	c01027f3          	rdtime	a5
  }

  // ask for the next timer interrupt. this also clears
  // the interrupt request. 1000000 is about a tenth
  // of a second.
  w_stimecmp(r_time() + 1000000);
    80001944:	000f4737          	lui	a4,0xf4
    80001948:	24070713          	addi	a4,a4,576 # f4240 <_entry-0x7ff0bdc0>
    8000194c:	97ba                	add	a5,a5,a4
  asm volatile("csrw 0x14d, %0" : : "r" (x));
    8000194e:	14d79073          	csrw	stimecmp,a5
}
    80001952:	60a2                	ld	ra,8(sp)
    80001954:	6402                	ld	s0,0(sp)
    80001956:	0141                	addi	sp,sp,16
    80001958:	8082                	ret
    acquire(&tickslock);
    8000195a:	0000e517          	auipc	a0,0xe
    8000195e:	7f650513          	addi	a0,a0,2038 # 80010150 <tickslock>
    80001962:	01a040ef          	jal	8000597c <acquire>
    ticks++;
    80001966:	00009717          	auipc	a4,0x9
    8000196a:	98270713          	addi	a4,a4,-1662 # 8000a2e8 <ticks>
    8000196e:	431c                	lw	a5,0(a4)
    80001970:	2785                	addiw	a5,a5,1
    80001972:	c31c                	sw	a5,0(a4)
    wakeup(&ticks);
    80001974:	853a                	mv	a0,a4
    80001976:	a3bff0ef          	jal	800013b0 <wakeup>
    release(&tickslock);
    8000197a:	0000e517          	auipc	a0,0xe
    8000197e:	7d650513          	addi	a0,a0,2006 # 80010150 <tickslock>
    80001982:	08e040ef          	jal	80005a10 <release>
    80001986:	bf6d                	j	80001940 <clockintr+0xe>

0000000080001988 <devintr>:
// returns 2 if timer interrupt,
// 1 if other device,
// 0 if not recognized.
int
devintr()
{
    80001988:	1101                	addi	sp,sp,-32
    8000198a:	ec06                	sd	ra,24(sp)
    8000198c:	e822                	sd	s0,16(sp)
    8000198e:	1000                	addi	s0,sp,32
  asm volatile("csrr %0, scause" : "=r" (x) );
    80001990:	14202773          	csrr	a4,scause
  uint64 scause = r_scause();

  if(scause == 0x8000000000000009L){
    80001994:	57fd                	li	a5,-1
    80001996:	17fe                	slli	a5,a5,0x3f
    80001998:	07a5                	addi	a5,a5,9
    8000199a:	00f70c63          	beq	a4,a5,800019b2 <devintr+0x2a>
    // now allowed to interrupt again.
    if(irq)
      plic_complete(irq);

    return 1;
  } else if(scause == 0x8000000000000005L){
    8000199e:	57fd                	li	a5,-1
    800019a0:	17fe                	slli	a5,a5,0x3f
    800019a2:	0795                	addi	a5,a5,5
    // timer interrupt.
    clockintr();
    return 2;
  } else {
    return 0;
    800019a4:	4501                	li	a0,0
  } else if(scause == 0x8000000000000005L){
    800019a6:	04f70863          	beq	a4,a5,800019f6 <devintr+0x6e>
  }
}
    800019aa:	60e2                	ld	ra,24(sp)
    800019ac:	6442                	ld	s0,16(sp)
    800019ae:	6105                	addi	sp,sp,32
    800019b0:	8082                	ret
    800019b2:	e426                	sd	s1,8(sp)
    int irq = plic_claim();
    800019b4:	789020ef          	jal	8000493c <plic_claim>
    800019b8:	872a                	mv	a4,a0
    800019ba:	84aa                	mv	s1,a0
    if(irq == UART0_IRQ){
    800019bc:	47a9                	li	a5,10
    800019be:	00f50963          	beq	a0,a5,800019d0 <devintr+0x48>
    } else if(irq == VIRTIO0_IRQ){
    800019c2:	4785                	li	a5,1
    800019c4:	00f50963          	beq	a0,a5,800019d6 <devintr+0x4e>
    return 1;
    800019c8:	4505                	li	a0,1
    } else if(irq){
    800019ca:	eb09                	bnez	a4,800019dc <devintr+0x54>
    800019cc:	64a2                	ld	s1,8(sp)
    800019ce:	bff1                	j	800019aa <devintr+0x22>
      uartintr();
    800019d0:	6e3030ef          	jal	800058b2 <uartintr>
    if(irq)
    800019d4:	a819                	j	800019ea <devintr+0x62>
      virtio_disk_intr();
    800019d6:	3fc030ef          	jal	80004dd2 <virtio_disk_intr>
    if(irq)
    800019da:	a801                	j	800019ea <devintr+0x62>
      printf("unexpected interrupt irq=%d\n", irq);
    800019dc:	85ba                	mv	a1,a4
    800019de:	00006517          	auipc	a0,0x6
    800019e2:	8b250513          	addi	a0,a0,-1870 # 80007290 <etext+0x290>
    800019e6:	149030ef          	jal	8000532e <printf>
      plic_complete(irq);
    800019ea:	8526                	mv	a0,s1
    800019ec:	771020ef          	jal	8000495c <plic_complete>
    return 1;
    800019f0:	4505                	li	a0,1
    800019f2:	64a2                	ld	s1,8(sp)
    800019f4:	bf5d                	j	800019aa <devintr+0x22>
    clockintr();
    800019f6:	f3dff0ef          	jal	80001932 <clockintr>
    return 2;
    800019fa:	4509                	li	a0,2
    800019fc:	b77d                	j	800019aa <devintr+0x22>

00000000800019fe <usertrap>:
{
    800019fe:	1101                	addi	sp,sp,-32
    80001a00:	ec06                	sd	ra,24(sp)
    80001a02:	e822                	sd	s0,16(sp)
    80001a04:	e426                	sd	s1,8(sp)
    80001a06:	e04a                	sd	s2,0(sp)
    80001a08:	1000                	addi	s0,sp,32
  asm volatile("csrr %0, sstatus" : "=r" (x) );
    80001a0a:	100027f3          	csrr	a5,sstatus
  if((r_sstatus() & SSTATUS_SPP) != 0)
    80001a0e:	1007f793          	andi	a5,a5,256
    80001a12:	ef85                	bnez	a5,80001a4a <usertrap+0x4c>
  asm volatile("csrw stvec, %0" : : "r" (x));
    80001a14:	00003797          	auipc	a5,0x3
    80001a18:	e7c78793          	addi	a5,a5,-388 # 80004890 <kernelvec>
    80001a1c:	10579073          	csrw	stvec,a5
  struct proc *p = myproc();
    80001a20:	b66ff0ef          	jal	80000d86 <myproc>
    80001a24:	84aa                	mv	s1,a0
  p->trapframe->epc = r_sepc();
    80001a26:	6d3c                	ld	a5,88(a0)
  asm volatile("csrr %0, sepc" : "=r" (x) );
    80001a28:	14102773          	csrr	a4,sepc
    80001a2c:	ef98                	sd	a4,24(a5)
  asm volatile("csrr %0, scause" : "=r" (x) );
    80001a2e:	14202773          	csrr	a4,scause
  if(r_scause() == 8){
    80001a32:	47a1                	li	a5,8
    80001a34:	02f70163          	beq	a4,a5,80001a56 <usertrap+0x58>
  } else if((which_dev = devintr()) != 0){
    80001a38:	f51ff0ef          	jal	80001988 <devintr>
    80001a3c:	892a                	mv	s2,a0
    80001a3e:	c135                	beqz	a0,80001aa2 <usertrap+0xa4>
  if(killed(p))
    80001a40:	8526                	mv	a0,s1
    80001a42:	b5fff0ef          	jal	800015a0 <killed>
    80001a46:	cd1d                	beqz	a0,80001a84 <usertrap+0x86>
    80001a48:	a81d                	j	80001a7e <usertrap+0x80>
    panic("usertrap: not from user mode");
    80001a4a:	00006517          	auipc	a0,0x6
    80001a4e:	86650513          	addi	a0,a0,-1946 # 800072b0 <etext+0x2b0>
    80001a52:	3ed030ef          	jal	8000563e <panic>
    if(killed(p))
    80001a56:	b4bff0ef          	jal	800015a0 <killed>
    80001a5a:	e121                	bnez	a0,80001a9a <usertrap+0x9c>
    p->trapframe->epc += 4;
    80001a5c:	6cb8                	ld	a4,88(s1)
    80001a5e:	6f1c                	ld	a5,24(a4)
    80001a60:	0791                	addi	a5,a5,4
    80001a62:	ef1c                	sd	a5,24(a4)
  asm volatile("csrr %0, sstatus" : "=r" (x) );
    80001a64:	100027f3          	csrr	a5,sstatus
  w_sstatus(r_sstatus() | SSTATUS_SIE);
    80001a68:	0027e793          	ori	a5,a5,2
  asm volatile("csrw sstatus, %0" : : "r" (x));
    80001a6c:	10079073          	csrw	sstatus,a5
    syscall();
    80001a70:	242000ef          	jal	80001cb2 <syscall>
  if(killed(p))
    80001a74:	8526                	mv	a0,s1
    80001a76:	b2bff0ef          	jal	800015a0 <killed>
    80001a7a:	c901                	beqz	a0,80001a8a <usertrap+0x8c>
    80001a7c:	4901                	li	s2,0
    exit(-1);
    80001a7e:	557d                	li	a0,-1
    80001a80:	9f1ff0ef          	jal	80001470 <exit>
  if(which_dev == 2)
    80001a84:	4789                	li	a5,2
    80001a86:	04f90563          	beq	s2,a5,80001ad0 <usertrap+0xd2>
  usertrapret();
    80001a8a:	e17ff0ef          	jal	800018a0 <usertrapret>
}
    80001a8e:	60e2                	ld	ra,24(sp)
    80001a90:	6442                	ld	s0,16(sp)
    80001a92:	64a2                	ld	s1,8(sp)
    80001a94:	6902                	ld	s2,0(sp)
    80001a96:	6105                	addi	sp,sp,32
    80001a98:	8082                	ret
      exit(-1);
    80001a9a:	557d                	li	a0,-1
    80001a9c:	9d5ff0ef          	jal	80001470 <exit>
    80001aa0:	bf75                	j	80001a5c <usertrap+0x5e>
  asm volatile("csrr %0, scause" : "=r" (x) );
    80001aa2:	142025f3          	csrr	a1,scause
    printf("usertrap(): unexpected scause 0x%lx pid=%d\n", r_scause(), p->pid);
    80001aa6:	5890                	lw	a2,48(s1)
    80001aa8:	00006517          	auipc	a0,0x6
    80001aac:	82850513          	addi	a0,a0,-2008 # 800072d0 <etext+0x2d0>
    80001ab0:	07f030ef          	jal	8000532e <printf>
  asm volatile("csrr %0, sepc" : "=r" (x) );
    80001ab4:	141025f3          	csrr	a1,sepc
  asm volatile("csrr %0, stval" : "=r" (x) );
    80001ab8:	14302673          	csrr	a2,stval
    printf("            sepc=0x%lx stval=0x%lx\n", r_sepc(), r_stval());
    80001abc:	00006517          	auipc	a0,0x6
    80001ac0:	84450513          	addi	a0,a0,-1980 # 80007300 <etext+0x300>
    80001ac4:	06b030ef          	jal	8000532e <printf>
    setkilled(p);
    80001ac8:	8526                	mv	a0,s1
    80001aca:	ab3ff0ef          	jal	8000157c <setkilled>
    80001ace:	b75d                	j	80001a74 <usertrap+0x76>
    yield();
    80001ad0:	869ff0ef          	jal	80001338 <yield>
    80001ad4:	bf5d                	j	80001a8a <usertrap+0x8c>

0000000080001ad6 <kerneltrap>:
{
    80001ad6:	7179                	addi	sp,sp,-48
    80001ad8:	f406                	sd	ra,40(sp)
    80001ada:	f022                	sd	s0,32(sp)
    80001adc:	ec26                	sd	s1,24(sp)
    80001ade:	e84a                	sd	s2,16(sp)
    80001ae0:	e44e                	sd	s3,8(sp)
    80001ae2:	1800                	addi	s0,sp,48
  asm volatile("csrr %0, sepc" : "=r" (x) );
    80001ae4:	14102973          	csrr	s2,sepc
  asm volatile("csrr %0, sstatus" : "=r" (x) );
    80001ae8:	100024f3          	csrr	s1,sstatus
  asm volatile("csrr %0, scause" : "=r" (x) );
    80001aec:	142027f3          	csrr	a5,scause
    80001af0:	89be                	mv	s3,a5
  if((sstatus & SSTATUS_SPP) == 0)
    80001af2:	1004f793          	andi	a5,s1,256
    80001af6:	c795                	beqz	a5,80001b22 <kerneltrap+0x4c>
  asm volatile("csrr %0, sstatus" : "=r" (x) );
    80001af8:	100027f3          	csrr	a5,sstatus
  return (x & SSTATUS_SIE) != 0;
    80001afc:	8b89                	andi	a5,a5,2
  if(intr_get() != 0)
    80001afe:	eb85                	bnez	a5,80001b2e <kerneltrap+0x58>
  if((which_dev = devintr()) == 0){
    80001b00:	e89ff0ef          	jal	80001988 <devintr>
    80001b04:	c91d                	beqz	a0,80001b3a <kerneltrap+0x64>
  if(which_dev == 2 && myproc() != 0)
    80001b06:	4789                	li	a5,2
    80001b08:	04f50a63          	beq	a0,a5,80001b5c <kerneltrap+0x86>
  asm volatile("csrw sepc, %0" : : "r" (x));
    80001b0c:	14191073          	csrw	sepc,s2
  asm volatile("csrw sstatus, %0" : : "r" (x));
    80001b10:	10049073          	csrw	sstatus,s1
}
    80001b14:	70a2                	ld	ra,40(sp)
    80001b16:	7402                	ld	s0,32(sp)
    80001b18:	64e2                	ld	s1,24(sp)
    80001b1a:	6942                	ld	s2,16(sp)
    80001b1c:	69a2                	ld	s3,8(sp)
    80001b1e:	6145                	addi	sp,sp,48
    80001b20:	8082                	ret
    panic("kerneltrap: not from supervisor mode");
    80001b22:	00006517          	auipc	a0,0x6
    80001b26:	80650513          	addi	a0,a0,-2042 # 80007328 <etext+0x328>
    80001b2a:	315030ef          	jal	8000563e <panic>
    panic("kerneltrap: interrupts enabled");
    80001b2e:	00006517          	auipc	a0,0x6
    80001b32:	82250513          	addi	a0,a0,-2014 # 80007350 <etext+0x350>
    80001b36:	309030ef          	jal	8000563e <panic>
  asm volatile("csrr %0, sepc" : "=r" (x) );
    80001b3a:	14102673          	csrr	a2,sepc
  asm volatile("csrr %0, stval" : "=r" (x) );
    80001b3e:	143026f3          	csrr	a3,stval
    printf("scause=0x%lx sepc=0x%lx stval=0x%lx\n", scause, r_sepc(), r_stval());
    80001b42:	85ce                	mv	a1,s3
    80001b44:	00006517          	auipc	a0,0x6
    80001b48:	82c50513          	addi	a0,a0,-2004 # 80007370 <etext+0x370>
    80001b4c:	7e2030ef          	jal	8000532e <printf>
    panic("kerneltrap");
    80001b50:	00006517          	auipc	a0,0x6
    80001b54:	84850513          	addi	a0,a0,-1976 # 80007398 <etext+0x398>
    80001b58:	2e7030ef          	jal	8000563e <panic>
  if(which_dev == 2 && myproc() != 0)
    80001b5c:	a2aff0ef          	jal	80000d86 <myproc>
    80001b60:	d555                	beqz	a0,80001b0c <kerneltrap+0x36>
    yield();
    80001b62:	fd6ff0ef          	jal	80001338 <yield>
    80001b66:	b75d                	j	80001b0c <kerneltrap+0x36>

0000000080001b68 <argraw>:
  return strlen(buf);
}

static uint64
argraw(int n)
{
    80001b68:	1101                	addi	sp,sp,-32
    80001b6a:	ec06                	sd	ra,24(sp)
    80001b6c:	e822                	sd	s0,16(sp)
    80001b6e:	e426                	sd	s1,8(sp)
    80001b70:	1000                	addi	s0,sp,32
    80001b72:	84aa                	mv	s1,a0
  struct proc *p = myproc();
    80001b74:	a12ff0ef          	jal	80000d86 <myproc>
  switch (n)
    80001b78:	4795                	li	a5,5
    80001b7a:	0497e163          	bltu	a5,s1,80001bbc <argraw+0x54>
    80001b7e:	048a                	slli	s1,s1,0x2
    80001b80:	00006717          	auipc	a4,0x6
    80001b84:	c2070713          	addi	a4,a4,-992 # 800077a0 <states.0+0x30>
    80001b88:	94ba                	add	s1,s1,a4
    80001b8a:	409c                	lw	a5,0(s1)
    80001b8c:	97ba                	add	a5,a5,a4
    80001b8e:	8782                	jr	a5
  {
  case 0:
    return p->trapframe->a0;
    80001b90:	6d3c                	ld	a5,88(a0)
    80001b92:	7ba8                	ld	a0,112(a5)
  case 5:
    return p->trapframe->a5;
  }
  panic("argraw");
  return -1;
}
    80001b94:	60e2                	ld	ra,24(sp)
    80001b96:	6442                	ld	s0,16(sp)
    80001b98:	64a2                	ld	s1,8(sp)
    80001b9a:	6105                	addi	sp,sp,32
    80001b9c:	8082                	ret
    return p->trapframe->a1;
    80001b9e:	6d3c                	ld	a5,88(a0)
    80001ba0:	7fa8                	ld	a0,120(a5)
    80001ba2:	bfcd                	j	80001b94 <argraw+0x2c>
    return p->trapframe->a2;
    80001ba4:	6d3c                	ld	a5,88(a0)
    80001ba6:	63c8                	ld	a0,128(a5)
    80001ba8:	b7f5                	j	80001b94 <argraw+0x2c>
    return p->trapframe->a3;
    80001baa:	6d3c                	ld	a5,88(a0)
    80001bac:	67c8                	ld	a0,136(a5)
    80001bae:	b7dd                	j	80001b94 <argraw+0x2c>
    return p->trapframe->a4;
    80001bb0:	6d3c                	ld	a5,88(a0)
    80001bb2:	6bc8                	ld	a0,144(a5)
    80001bb4:	b7c5                	j	80001b94 <argraw+0x2c>
    return p->trapframe->a5;
    80001bb6:	6d3c                	ld	a5,88(a0)
    80001bb8:	6fc8                	ld	a0,152(a5)
    80001bba:	bfe9                	j	80001b94 <argraw+0x2c>
  panic("argraw");
    80001bbc:	00005517          	auipc	a0,0x5
    80001bc0:	7ec50513          	addi	a0,a0,2028 # 800073a8 <etext+0x3a8>
    80001bc4:	27b030ef          	jal	8000563e <panic>

0000000080001bc8 <fetchaddr>:
{
    80001bc8:	1101                	addi	sp,sp,-32
    80001bca:	ec06                	sd	ra,24(sp)
    80001bcc:	e822                	sd	s0,16(sp)
    80001bce:	e426                	sd	s1,8(sp)
    80001bd0:	e04a                	sd	s2,0(sp)
    80001bd2:	1000                	addi	s0,sp,32
    80001bd4:	84aa                	mv	s1,a0
    80001bd6:	892e                	mv	s2,a1
  struct proc *p = myproc();
    80001bd8:	9aeff0ef          	jal	80000d86 <myproc>
  if (addr >= p->sz || addr + sizeof(uint64) > p->sz) // both tests needed, in case of overflow
    80001bdc:	653c                	ld	a5,72(a0)
    80001bde:	02f4f663          	bgeu	s1,a5,80001c0a <fetchaddr+0x42>
    80001be2:	00848713          	addi	a4,s1,8
    80001be6:	02e7e463          	bltu	a5,a4,80001c0e <fetchaddr+0x46>
  if (copyin(p->pagetable, (char *)ip, addr, sizeof(*ip)) != 0)
    80001bea:	46a1                	li	a3,8
    80001bec:	8626                	mv	a2,s1
    80001bee:	85ca                	mv	a1,s2
    80001bf0:	6928                	ld	a0,80(a0)
    80001bf2:	ec1fe0ef          	jal	80000ab2 <copyin>
    80001bf6:	00a03533          	snez	a0,a0
    80001bfa:	40a0053b          	negw	a0,a0
}
    80001bfe:	60e2                	ld	ra,24(sp)
    80001c00:	6442                	ld	s0,16(sp)
    80001c02:	64a2                	ld	s1,8(sp)
    80001c04:	6902                	ld	s2,0(sp)
    80001c06:	6105                	addi	sp,sp,32
    80001c08:	8082                	ret
    return -1;
    80001c0a:	557d                	li	a0,-1
    80001c0c:	bfcd                	j	80001bfe <fetchaddr+0x36>
    80001c0e:	557d                	li	a0,-1
    80001c10:	b7fd                	j	80001bfe <fetchaddr+0x36>

0000000080001c12 <fetchstr>:
{
    80001c12:	7179                	addi	sp,sp,-48
    80001c14:	f406                	sd	ra,40(sp)
    80001c16:	f022                	sd	s0,32(sp)
    80001c18:	ec26                	sd	s1,24(sp)
    80001c1a:	e84a                	sd	s2,16(sp)
    80001c1c:	e44e                	sd	s3,8(sp)
    80001c1e:	1800                	addi	s0,sp,48
    80001c20:	89aa                	mv	s3,a0
    80001c22:	84ae                	mv	s1,a1
    80001c24:	8932                	mv	s2,a2
  struct proc *p = myproc();
    80001c26:	960ff0ef          	jal	80000d86 <myproc>
  if (copyinstr(p->pagetable, buf, addr, max) < 0)
    80001c2a:	86ca                	mv	a3,s2
    80001c2c:	864e                	mv	a2,s3
    80001c2e:	85a6                	mv	a1,s1
    80001c30:	6928                	ld	a0,80(a0)
    80001c32:	f07fe0ef          	jal	80000b38 <copyinstr>
    80001c36:	00054c63          	bltz	a0,80001c4e <fetchstr+0x3c>
  return strlen(buf);
    80001c3a:	8526                	mv	a0,s1
    80001c3c:	eacfe0ef          	jal	800002e8 <strlen>
}
    80001c40:	70a2                	ld	ra,40(sp)
    80001c42:	7402                	ld	s0,32(sp)
    80001c44:	64e2                	ld	s1,24(sp)
    80001c46:	6942                	ld	s2,16(sp)
    80001c48:	69a2                	ld	s3,8(sp)
    80001c4a:	6145                	addi	sp,sp,48
    80001c4c:	8082                	ret
    return -1;
    80001c4e:	557d                	li	a0,-1
    80001c50:	bfc5                	j	80001c40 <fetchstr+0x2e>

0000000080001c52 <argint>:

// Fetch the nth 32-bit system call argument.
void argint(int n, int *ip)
{
    80001c52:	1101                	addi	sp,sp,-32
    80001c54:	ec06                	sd	ra,24(sp)
    80001c56:	e822                	sd	s0,16(sp)
    80001c58:	e426                	sd	s1,8(sp)
    80001c5a:	1000                	addi	s0,sp,32
    80001c5c:	84ae                	mv	s1,a1
  *ip = argraw(n);
    80001c5e:	f0bff0ef          	jal	80001b68 <argraw>
    80001c62:	c088                	sw	a0,0(s1)
}
    80001c64:	60e2                	ld	ra,24(sp)
    80001c66:	6442                	ld	s0,16(sp)
    80001c68:	64a2                	ld	s1,8(sp)
    80001c6a:	6105                	addi	sp,sp,32
    80001c6c:	8082                	ret

0000000080001c6e <argaddr>:

// Retrieve an argument as a pointer.
// Doesn't check for legality, since
// copyin/copyout will do that.
void argaddr(int n, uint64 *ip)
{
    80001c6e:	1101                	addi	sp,sp,-32
    80001c70:	ec06                	sd	ra,24(sp)
    80001c72:	e822                	sd	s0,16(sp)
    80001c74:	e426                	sd	s1,8(sp)
    80001c76:	1000                	addi	s0,sp,32
    80001c78:	84ae                	mv	s1,a1
  *ip = argraw(n);
    80001c7a:	eefff0ef          	jal	80001b68 <argraw>
    80001c7e:	e088                	sd	a0,0(s1)
}
    80001c80:	60e2                	ld	ra,24(sp)
    80001c82:	6442                	ld	s0,16(sp)
    80001c84:	64a2                	ld	s1,8(sp)
    80001c86:	6105                	addi	sp,sp,32
    80001c88:	8082                	ret

0000000080001c8a <argstr>:

// Fetch the nth word-sized system call argument as a null-terminated string.
// Copies into buf, at most max.
// Returns string length if OK (including nul), -1 if error.
int argstr(int n, char *buf, int max)
{
    80001c8a:	1101                	addi	sp,sp,-32
    80001c8c:	ec06                	sd	ra,24(sp)
    80001c8e:	e822                	sd	s0,16(sp)
    80001c90:	e426                	sd	s1,8(sp)
    80001c92:	e04a                	sd	s2,0(sp)
    80001c94:	1000                	addi	s0,sp,32
    80001c96:	892e                	mv	s2,a1
    80001c98:	84b2                	mv	s1,a2
  *ip = argraw(n);
    80001c9a:	ecfff0ef          	jal	80001b68 <argraw>
  uint64 addr;
  argaddr(n, &addr);
  return fetchstr(addr, buf, max);
    80001c9e:	8626                	mv	a2,s1
    80001ca0:	85ca                	mv	a1,s2
    80001ca2:	f71ff0ef          	jal	80001c12 <fetchstr>
}
    80001ca6:	60e2                	ld	ra,24(sp)
    80001ca8:	6442                	ld	s0,16(sp)
    80001caa:	64a2                	ld	s1,8(sp)
    80001cac:	6902                	ld	s2,0(sp)
    80001cae:	6105                	addi	sp,sp,32
    80001cb0:	8082                	ret

0000000080001cb2 <syscall>:
    [SYS_unfreeze] sys_unfreeze,
    [SYS_chmod] sys_chmod,
};

void syscall(void)
{
    80001cb2:	1101                	addi	sp,sp,-32
    80001cb4:	ec06                	sd	ra,24(sp)
    80001cb6:	e822                	sd	s0,16(sp)
    80001cb8:	e426                	sd	s1,8(sp)
    80001cba:	e04a                	sd	s2,0(sp)
    80001cbc:	1000                	addi	s0,sp,32
  int num;
  struct proc *p = myproc();
    80001cbe:	8c8ff0ef          	jal	80000d86 <myproc>
    80001cc2:	84aa                	mv	s1,a0

  num = p->trapframe->a7;
    80001cc4:	05853903          	ld	s2,88(a0)
    80001cc8:	0a893783          	ld	a5,168(s2)
    80001ccc:	0007869b          	sext.w	a3,a5
  if (num > 0 && num < NELEM(syscalls) && syscalls[num])
    80001cd0:	37fd                	addiw	a5,a5,-1
    80001cd2:	475d                	li	a4,23
    80001cd4:	00f76f63          	bltu	a4,a5,80001cf2 <syscall+0x40>
    80001cd8:	00369713          	slli	a4,a3,0x3
    80001cdc:	00006797          	auipc	a5,0x6
    80001ce0:	adc78793          	addi	a5,a5,-1316 # 800077b8 <syscalls>
    80001ce4:	97ba                	add	a5,a5,a4
    80001ce6:	639c                	ld	a5,0(a5)
    80001ce8:	c789                	beqz	a5,80001cf2 <syscall+0x40>
  {
    // Use num to lookup the system call function for num, call it,
    // and store its return value in p->trapframe->a0
    p->trapframe->a0 = syscalls[num]();
    80001cea:	9782                	jalr	a5
    80001cec:	06a93823          	sd	a0,112(s2)
    80001cf0:	a829                	j	80001d0a <syscall+0x58>
  }
  else
  {
    printf("%d %s: unknown sys call %d\n",
    80001cf2:	15848613          	addi	a2,s1,344
    80001cf6:	588c                	lw	a1,48(s1)
    80001cf8:	00005517          	auipc	a0,0x5
    80001cfc:	6b850513          	addi	a0,a0,1720 # 800073b0 <etext+0x3b0>
    80001d00:	62e030ef          	jal	8000532e <printf>
           p->pid, p->name, num);
    p->trapframe->a0 = -1;
    80001d04:	6cbc                	ld	a5,88(s1)
    80001d06:	577d                	li	a4,-1
    80001d08:	fbb8                	sd	a4,112(a5)
  }
}
    80001d0a:	60e2                	ld	ra,24(sp)
    80001d0c:	6442                	ld	s0,16(sp)
    80001d0e:	64a2                	ld	s1,8(sp)
    80001d10:	6902                	ld	s2,0(sp)
    80001d12:	6105                	addi	sp,sp,32
    80001d14:	8082                	ret

0000000080001d16 <sys_exit>:

extern struct proc proc[NPROC];

uint64
sys_exit(void)
{
    80001d16:	1101                	addi	sp,sp,-32
    80001d18:	ec06                	sd	ra,24(sp)
    80001d1a:	e822                	sd	s0,16(sp)
    80001d1c:	1000                	addi	s0,sp,32
  int n;
  argint(0, &n);
    80001d1e:	fec40593          	addi	a1,s0,-20
    80001d22:	4501                	li	a0,0
    80001d24:	f2fff0ef          	jal	80001c52 <argint>
  exit(n);
    80001d28:	fec42503          	lw	a0,-20(s0)
    80001d2c:	f44ff0ef          	jal	80001470 <exit>
  return 0;  // not reached
}
    80001d30:	4501                	li	a0,0
    80001d32:	60e2                	ld	ra,24(sp)
    80001d34:	6442                	ld	s0,16(sp)
    80001d36:	6105                	addi	sp,sp,32
    80001d38:	8082                	ret

0000000080001d3a <sys_getpid>:

uint64
sys_getpid(void)
{
    80001d3a:	1141                	addi	sp,sp,-16
    80001d3c:	e406                	sd	ra,8(sp)
    80001d3e:	e022                	sd	s0,0(sp)
    80001d40:	0800                	addi	s0,sp,16
  return myproc()->pid;
    80001d42:	844ff0ef          	jal	80000d86 <myproc>
}
    80001d46:	5908                	lw	a0,48(a0)
    80001d48:	60a2                	ld	ra,8(sp)
    80001d4a:	6402                	ld	s0,0(sp)
    80001d4c:	0141                	addi	sp,sp,16
    80001d4e:	8082                	ret

0000000080001d50 <sys_fork>:

uint64
sys_fork(void)
{
    80001d50:	1141                	addi	sp,sp,-16
    80001d52:	e406                	sd	ra,8(sp)
    80001d54:	e022                	sd	s0,0(sp)
    80001d56:	0800                	addi	s0,sp,16
  return fork();
    80001d58:	b56ff0ef          	jal	800010ae <fork>
}
    80001d5c:	60a2                	ld	ra,8(sp)
    80001d5e:	6402                	ld	s0,0(sp)
    80001d60:	0141                	addi	sp,sp,16
    80001d62:	8082                	ret

0000000080001d64 <sys_wait>:

uint64
sys_wait(void)
{
    80001d64:	1101                	addi	sp,sp,-32
    80001d66:	ec06                	sd	ra,24(sp)
    80001d68:	e822                	sd	s0,16(sp)
    80001d6a:	1000                	addi	s0,sp,32
  uint64 p;
  argaddr(0, &p);
    80001d6c:	fe840593          	addi	a1,s0,-24
    80001d70:	4501                	li	a0,0
    80001d72:	efdff0ef          	jal	80001c6e <argaddr>
  return wait(p);
    80001d76:	fe843503          	ld	a0,-24(s0)
    80001d7a:	851ff0ef          	jal	800015ca <wait>
}
    80001d7e:	60e2                	ld	ra,24(sp)
    80001d80:	6442                	ld	s0,16(sp)
    80001d82:	6105                	addi	sp,sp,32
    80001d84:	8082                	ret

0000000080001d86 <sys_sbrk>:

uint64
sys_sbrk(void)
{
    80001d86:	7179                	addi	sp,sp,-48
    80001d88:	f406                	sd	ra,40(sp)
    80001d8a:	f022                	sd	s0,32(sp)
    80001d8c:	ec26                	sd	s1,24(sp)
    80001d8e:	1800                	addi	s0,sp,48
  uint64 addr;
  int n;

  argint(0, &n);
    80001d90:	fdc40593          	addi	a1,s0,-36
    80001d94:	4501                	li	a0,0
    80001d96:	ebdff0ef          	jal	80001c52 <argint>
  addr = myproc()->sz;
    80001d9a:	fedfe0ef          	jal	80000d86 <myproc>
    80001d9e:	653c                	ld	a5,72(a0)
    80001da0:	84be                	mv	s1,a5
  if(growproc(n) < 0)
    80001da2:	fdc42503          	lw	a0,-36(s0)
    80001da6:	ab8ff0ef          	jal	8000105e <growproc>
    80001daa:	00054863          	bltz	a0,80001dba <sys_sbrk+0x34>
    return -1;
  return addr;
}
    80001dae:	8526                	mv	a0,s1
    80001db0:	70a2                	ld	ra,40(sp)
    80001db2:	7402                	ld	s0,32(sp)
    80001db4:	64e2                	ld	s1,24(sp)
    80001db6:	6145                	addi	sp,sp,48
    80001db8:	8082                	ret
    return -1;
    80001dba:	57fd                	li	a5,-1
    80001dbc:	84be                	mv	s1,a5
    80001dbe:	bfc5                	j	80001dae <sys_sbrk+0x28>

0000000080001dc0 <sys_sleep>:

uint64
sys_sleep(void)
{
    80001dc0:	7139                	addi	sp,sp,-64
    80001dc2:	fc06                	sd	ra,56(sp)
    80001dc4:	f822                	sd	s0,48(sp)
    80001dc6:	0080                	addi	s0,sp,64
  int n;
  uint ticks0;

  argint(0, &n);
    80001dc8:	fcc40593          	addi	a1,s0,-52
    80001dcc:	4501                	li	a0,0
    80001dce:	e85ff0ef          	jal	80001c52 <argint>
  if(n < 0)
    80001dd2:	fcc42783          	lw	a5,-52(s0)
    80001dd6:	0607c863          	bltz	a5,80001e46 <sys_sleep+0x86>
    n = 0;
  acquire(&tickslock);
    80001dda:	0000e517          	auipc	a0,0xe
    80001dde:	37650513          	addi	a0,a0,886 # 80010150 <tickslock>
    80001de2:	39b030ef          	jal	8000597c <acquire>
  ticks0 = ticks;
  while(ticks - ticks0 < n){
    80001de6:	fcc42783          	lw	a5,-52(s0)
    80001dea:	c3b9                	beqz	a5,80001e30 <sys_sleep+0x70>
    80001dec:	f426                	sd	s1,40(sp)
    80001dee:	f04a                	sd	s2,32(sp)
    80001df0:	ec4e                	sd	s3,24(sp)
  ticks0 = ticks;
    80001df2:	00008997          	auipc	s3,0x8
    80001df6:	4f69a983          	lw	s3,1270(s3) # 8000a2e8 <ticks>
    if(killed(myproc())){
      release(&tickslock);
      return -1;
    }
    sleep(&ticks, &tickslock);
    80001dfa:	0000e917          	auipc	s2,0xe
    80001dfe:	35690913          	addi	s2,s2,854 # 80010150 <tickslock>
    80001e02:	00008497          	auipc	s1,0x8
    80001e06:	4e648493          	addi	s1,s1,1254 # 8000a2e8 <ticks>
    if(killed(myproc())){
    80001e0a:	f7dfe0ef          	jal	80000d86 <myproc>
    80001e0e:	f92ff0ef          	jal	800015a0 <killed>
    80001e12:	ed0d                	bnez	a0,80001e4c <sys_sleep+0x8c>
    sleep(&ticks, &tickslock);
    80001e14:	85ca                	mv	a1,s2
    80001e16:	8526                	mv	a0,s1
    80001e18:	d4cff0ef          	jal	80001364 <sleep>
  while(ticks - ticks0 < n){
    80001e1c:	409c                	lw	a5,0(s1)
    80001e1e:	413787bb          	subw	a5,a5,s3
    80001e22:	fcc42703          	lw	a4,-52(s0)
    80001e26:	fee7e2e3          	bltu	a5,a4,80001e0a <sys_sleep+0x4a>
    80001e2a:	74a2                	ld	s1,40(sp)
    80001e2c:	7902                	ld	s2,32(sp)
    80001e2e:	69e2                	ld	s3,24(sp)
  }
  release(&tickslock);
    80001e30:	0000e517          	auipc	a0,0xe
    80001e34:	32050513          	addi	a0,a0,800 # 80010150 <tickslock>
    80001e38:	3d9030ef          	jal	80005a10 <release>
  return 0;
    80001e3c:	4501                	li	a0,0
}
    80001e3e:	70e2                	ld	ra,56(sp)
    80001e40:	7442                	ld	s0,48(sp)
    80001e42:	6121                	addi	sp,sp,64
    80001e44:	8082                	ret
    n = 0;
    80001e46:	fc042623          	sw	zero,-52(s0)
    80001e4a:	bf41                	j	80001dda <sys_sleep+0x1a>
      release(&tickslock);
    80001e4c:	0000e517          	auipc	a0,0xe
    80001e50:	30450513          	addi	a0,a0,772 # 80010150 <tickslock>
    80001e54:	3bd030ef          	jal	80005a10 <release>
      return -1;
    80001e58:	557d                	li	a0,-1
    80001e5a:	74a2                	ld	s1,40(sp)
    80001e5c:	7902                	ld	s2,32(sp)
    80001e5e:	69e2                	ld	s3,24(sp)
    80001e60:	bff9                	j	80001e3e <sys_sleep+0x7e>

0000000080001e62 <sys_kill>:

uint64
sys_kill(void)
{
    80001e62:	1101                	addi	sp,sp,-32
    80001e64:	ec06                	sd	ra,24(sp)
    80001e66:	e822                	sd	s0,16(sp)
    80001e68:	1000                	addi	s0,sp,32
  int pid;

  argint(0, &pid);
    80001e6a:	fec40593          	addi	a1,s0,-20
    80001e6e:	4501                	li	a0,0
    80001e70:	de3ff0ef          	jal	80001c52 <argint>
  return kill(pid);
    80001e74:	fec42503          	lw	a0,-20(s0)
    80001e78:	e9eff0ef          	jal	80001516 <kill>
}
    80001e7c:	60e2                	ld	ra,24(sp)
    80001e7e:	6442                	ld	s0,16(sp)
    80001e80:	6105                	addi	sp,sp,32
    80001e82:	8082                	ret

0000000080001e84 <sys_uptime>:

// return how many clock tick interrupts have occurred
// since start.
uint64
sys_uptime(void)
{
    80001e84:	1101                	addi	sp,sp,-32
    80001e86:	ec06                	sd	ra,24(sp)
    80001e88:	e822                	sd	s0,16(sp)
    80001e8a:	e426                	sd	s1,8(sp)
    80001e8c:	1000                	addi	s0,sp,32
  uint xticks;

  acquire(&tickslock);
    80001e8e:	0000e517          	auipc	a0,0xe
    80001e92:	2c250513          	addi	a0,a0,706 # 80010150 <tickslock>
    80001e96:	2e7030ef          	jal	8000597c <acquire>
  xticks = ticks;
    80001e9a:	00008797          	auipc	a5,0x8
    80001e9e:	44e7a783          	lw	a5,1102(a5) # 8000a2e8 <ticks>
    80001ea2:	84be                	mv	s1,a5
  release(&tickslock);
    80001ea4:	0000e517          	auipc	a0,0xe
    80001ea8:	2ac50513          	addi	a0,a0,684 # 80010150 <tickslock>
    80001eac:	365030ef          	jal	80005a10 <release>
  return xticks;
}
    80001eb0:	02049513          	slli	a0,s1,0x20
    80001eb4:	9101                	srli	a0,a0,0x20
    80001eb6:	60e2                	ld	ra,24(sp)
    80001eb8:	6442                	ld	s0,16(sp)
    80001eba:	64a2                	ld	s1,8(sp)
    80001ebc:	6105                	addi	sp,sp,32
    80001ebe:	8082                	ret

0000000080001ec0 <sys_freeze>:

uint64
sys_freeze(void)
{
    80001ec0:	7179                	addi	sp,sp,-48
    80001ec2:	f406                	sd	ra,40(sp)
    80001ec4:	f022                	sd	s0,32(sp)
    80001ec6:	ec26                	sd	s1,24(sp)
    80001ec8:	e84a                	sd	s2,16(sp)
    80001eca:	1800                	addi	s0,sp,48
  int pid;
  argint(0, &pid);
    80001ecc:	fdc40593          	addi	a1,s0,-36
    80001ed0:	4501                	li	a0,0
    80001ed2:	d81ff0ef          	jal	80001c52 <argint>
  
  struct proc *p;
  for(p = proc; p < &proc[NPROC]; p++){
    80001ed6:	00009497          	auipc	s1,0x9
    80001eda:	87a48493          	addi	s1,s1,-1926 # 8000a750 <proc>
    80001ede:	0000e917          	auipc	s2,0xe
    80001ee2:	27290913          	addi	s2,s2,626 # 80010150 <tickslock>
    acquire(&p->lock);
    80001ee6:	8526                	mv	a0,s1
    80001ee8:	295030ef          	jal	8000597c <acquire>
    if(p->pid == pid){
    80001eec:	5898                	lw	a4,48(s1)
    80001eee:	fdc42783          	lw	a5,-36(s0)
    80001ef2:	00f70b63          	beq	a4,a5,80001f08 <sys_freeze+0x48>
        return 0;
      }
      release(&p->lock);
      return -1;
    }
    release(&p->lock);
    80001ef6:	8526                	mv	a0,s1
    80001ef8:	319030ef          	jal	80005a10 <release>
  for(p = proc; p < &proc[NPROC]; p++){
    80001efc:	16848493          	addi	s1,s1,360
    80001f00:	ff2493e3          	bne	s1,s2,80001ee6 <sys_freeze+0x26>
  }
  return -1;
    80001f04:	557d                	li	a0,-1
    80001f06:	a821                	j	80001f1e <sys_freeze+0x5e>
      if(p->state != ZOMBIE && p->state != UNUSED && !p->frozen){
    80001f08:	4c9c                	lw	a5,24(s1)
    80001f0a:	ffb78713          	addi	a4,a5,-5
    80001f0e:	c701                	beqz	a4,80001f16 <sys_freeze+0x56>
    80001f10:	c399                	beqz	a5,80001f16 <sys_freeze+0x56>
    80001f12:	58dc                	lw	a5,52(s1)
    80001f14:	cb99                	beqz	a5,80001f2a <sys_freeze+0x6a>
      release(&p->lock);
    80001f16:	8526                	mv	a0,s1
    80001f18:	2f9030ef          	jal	80005a10 <release>
      return -1;
    80001f1c:	557d                	li	a0,-1
}
    80001f1e:	70a2                	ld	ra,40(sp)
    80001f20:	7402                	ld	s0,32(sp)
    80001f22:	64e2                	ld	s1,24(sp)
    80001f24:	6942                	ld	s2,16(sp)
    80001f26:	6145                	addi	sp,sp,48
    80001f28:	8082                	ret
        p->frozen = 1;  // set frozen flag
    80001f2a:	4785                	li	a5,1
    80001f2c:	d8dc                	sw	a5,52(s1)
        release(&p->lock);
    80001f2e:	8526                	mv	a0,s1
    80001f30:	2e1030ef          	jal	80005a10 <release>
        return 0;
    80001f34:	4501                	li	a0,0
    80001f36:	b7e5                	j	80001f1e <sys_freeze+0x5e>

0000000080001f38 <sys_unfreeze>:

uint64
sys_unfreeze(void)
{
    80001f38:	7179                	addi	sp,sp,-48
    80001f3a:	f406                	sd	ra,40(sp)
    80001f3c:	f022                	sd	s0,32(sp)
    80001f3e:	ec26                	sd	s1,24(sp)
    80001f40:	e84a                	sd	s2,16(sp)
    80001f42:	1800                	addi	s0,sp,48
  int pid;
  argint(0, &pid);
    80001f44:	fdc40593          	addi	a1,s0,-36
    80001f48:	4501                	li	a0,0
    80001f4a:	d09ff0ef          	jal	80001c52 <argint>
  
  struct proc *p;
  for(p = proc; p < &proc[NPROC]; p++){
    80001f4e:	00009497          	auipc	s1,0x9
    80001f52:	80248493          	addi	s1,s1,-2046 # 8000a750 <proc>
    80001f56:	0000e917          	auipc	s2,0xe
    80001f5a:	1fa90913          	addi	s2,s2,506 # 80010150 <tickslock>
    acquire(&p->lock);
    80001f5e:	8526                	mv	a0,s1
    80001f60:	21d030ef          	jal	8000597c <acquire>
    if(p->pid == pid){
    80001f64:	5898                	lw	a4,48(s1)
    80001f66:	fdc42783          	lw	a5,-36(s0)
    80001f6a:	00f70b63          	beq	a4,a5,80001f80 <sys_unfreeze+0x48>
        return 0;
      }
      release(&p->lock);
      return -1;
    }
    release(&p->lock);
    80001f6e:	8526                	mv	a0,s1
    80001f70:	2a1030ef          	jal	80005a10 <release>
  for(p = proc; p < &proc[NPROC]; p++){
    80001f74:	16848493          	addi	s1,s1,360
    80001f78:	ff2493e3          	bne	s1,s2,80001f5e <sys_unfreeze+0x26>
  }
  return -1;
    80001f7c:	557d                	li	a0,-1
    80001f7e:	a829                	j	80001f98 <sys_unfreeze+0x60>
      if(p->frozen){
    80001f80:	58dc                	lw	a5,52(s1)
    80001f82:	c785                	beqz	a5,80001faa <sys_unfreeze+0x72>
        p->frozen = 0;  // clear frozen flag
    80001f84:	0204aa23          	sw	zero,52(s1)
        if(p->state == SLEEPING) {
    80001f88:	4c98                	lw	a4,24(s1)
    80001f8a:	4789                	li	a5,2
    80001f8c:	00f70c63          	beq	a4,a5,80001fa4 <sys_unfreeze+0x6c>
        release(&p->lock);
    80001f90:	8526                	mv	a0,s1
    80001f92:	27f030ef          	jal	80005a10 <release>
        return 0;
    80001f96:	4501                	li	a0,0
}
    80001f98:	70a2                	ld	ra,40(sp)
    80001f9a:	7402                	ld	s0,32(sp)
    80001f9c:	64e2                	ld	s1,24(sp)
    80001f9e:	6942                	ld	s2,16(sp)
    80001fa0:	6145                	addi	sp,sp,48
    80001fa2:	8082                	ret
          p->state = RUNNABLE;
    80001fa4:	478d                	li	a5,3
    80001fa6:	cc9c                	sw	a5,24(s1)
    80001fa8:	b7e5                	j	80001f90 <sys_unfreeze+0x58>
      release(&p->lock);
    80001faa:	8526                	mv	a0,s1
    80001fac:	265030ef          	jal	80005a10 <release>
      return -1;
    80001fb0:	557d                	li	a0,-1
    80001fb2:	b7dd                	j	80001f98 <sys_unfreeze+0x60>

0000000080001fb4 <binit>:
  struct buf head;
} bcache;

void
binit(void)
{
    80001fb4:	7179                	addi	sp,sp,-48
    80001fb6:	f406                	sd	ra,40(sp)
    80001fb8:	f022                	sd	s0,32(sp)
    80001fba:	ec26                	sd	s1,24(sp)
    80001fbc:	e84a                	sd	s2,16(sp)
    80001fbe:	e44e                	sd	s3,8(sp)
    80001fc0:	e052                	sd	s4,0(sp)
    80001fc2:	1800                	addi	s0,sp,48
  struct buf *b;

  initlock(&bcache.lock, "bcache");
    80001fc4:	00005597          	auipc	a1,0x5
    80001fc8:	40c58593          	addi	a1,a1,1036 # 800073d0 <etext+0x3d0>
    80001fcc:	0000e517          	auipc	a0,0xe
    80001fd0:	19c50513          	addi	a0,a0,412 # 80010168 <bcache>
    80001fd4:	11f030ef          	jal	800058f2 <initlock>

  // Create linked list of buffers
  bcache.head.prev = &bcache.head;
    80001fd8:	00016797          	auipc	a5,0x16
    80001fdc:	19078793          	addi	a5,a5,400 # 80018168 <bcache+0x8000>
    80001fe0:	00016717          	auipc	a4,0x16
    80001fe4:	3f070713          	addi	a4,a4,1008 # 800183d0 <bcache+0x8268>
    80001fe8:	2ae7b823          	sd	a4,688(a5)
  bcache.head.next = &bcache.head;
    80001fec:	2ae7bc23          	sd	a4,696(a5)
  for(b = bcache.buf; b < bcache.buf+NBUF; b++){
    80001ff0:	0000e497          	auipc	s1,0xe
    80001ff4:	19048493          	addi	s1,s1,400 # 80010180 <bcache+0x18>
    b->next = bcache.head.next;
    80001ff8:	893e                	mv	s2,a5
    b->prev = &bcache.head;
    80001ffa:	89ba                	mv	s3,a4
    initsleeplock(&b->lock, "buffer");
    80001ffc:	00005a17          	auipc	s4,0x5
    80002000:	3dca0a13          	addi	s4,s4,988 # 800073d8 <etext+0x3d8>
    b->next = bcache.head.next;
    80002004:	2b893783          	ld	a5,696(s2)
    80002008:	e8bc                	sd	a5,80(s1)
    b->prev = &bcache.head;
    8000200a:	0534b423          	sd	s3,72(s1)
    initsleeplock(&b->lock, "buffer");
    8000200e:	85d2                	mv	a1,s4
    80002010:	01048513          	addi	a0,s1,16
    80002014:	254010ef          	jal	80003268 <initsleeplock>
    bcache.head.next->prev = b;
    80002018:	2b893783          	ld	a5,696(s2)
    8000201c:	e7a4                	sd	s1,72(a5)
    bcache.head.next = b;
    8000201e:	2a993c23          	sd	s1,696(s2)
  for(b = bcache.buf; b < bcache.buf+NBUF; b++){
    80002022:	45848493          	addi	s1,s1,1112
    80002026:	fd349fe3          	bne	s1,s3,80002004 <binit+0x50>
  }
}
    8000202a:	70a2                	ld	ra,40(sp)
    8000202c:	7402                	ld	s0,32(sp)
    8000202e:	64e2                	ld	s1,24(sp)
    80002030:	6942                	ld	s2,16(sp)
    80002032:	69a2                	ld	s3,8(sp)
    80002034:	6a02                	ld	s4,0(sp)
    80002036:	6145                	addi	sp,sp,48
    80002038:	8082                	ret

000000008000203a <bread>:
}

// Return a locked buf with the contents of the indicated block.
struct buf*
bread(uint dev, uint blockno)
{
    8000203a:	7179                	addi	sp,sp,-48
    8000203c:	f406                	sd	ra,40(sp)
    8000203e:	f022                	sd	s0,32(sp)
    80002040:	ec26                	sd	s1,24(sp)
    80002042:	e84a                	sd	s2,16(sp)
    80002044:	e44e                	sd	s3,8(sp)
    80002046:	1800                	addi	s0,sp,48
    80002048:	892a                	mv	s2,a0
    8000204a:	89ae                	mv	s3,a1
  acquire(&bcache.lock);
    8000204c:	0000e517          	auipc	a0,0xe
    80002050:	11c50513          	addi	a0,a0,284 # 80010168 <bcache>
    80002054:	129030ef          	jal	8000597c <acquire>
  for(b = bcache.head.next; b != &bcache.head; b = b->next){
    80002058:	00016497          	auipc	s1,0x16
    8000205c:	3c84b483          	ld	s1,968(s1) # 80018420 <bcache+0x82b8>
    80002060:	00016797          	auipc	a5,0x16
    80002064:	37078793          	addi	a5,a5,880 # 800183d0 <bcache+0x8268>
    80002068:	02f48b63          	beq	s1,a5,8000209e <bread+0x64>
    8000206c:	873e                	mv	a4,a5
    8000206e:	a021                	j	80002076 <bread+0x3c>
    80002070:	68a4                	ld	s1,80(s1)
    80002072:	02e48663          	beq	s1,a4,8000209e <bread+0x64>
    if(b->dev == dev && b->blockno == blockno){
    80002076:	449c                	lw	a5,8(s1)
    80002078:	ff279ce3          	bne	a5,s2,80002070 <bread+0x36>
    8000207c:	44dc                	lw	a5,12(s1)
    8000207e:	ff3799e3          	bne	a5,s3,80002070 <bread+0x36>
      b->refcnt++;
    80002082:	40bc                	lw	a5,64(s1)
    80002084:	2785                	addiw	a5,a5,1
    80002086:	c0bc                	sw	a5,64(s1)
      release(&bcache.lock);
    80002088:	0000e517          	auipc	a0,0xe
    8000208c:	0e050513          	addi	a0,a0,224 # 80010168 <bcache>
    80002090:	181030ef          	jal	80005a10 <release>
      acquiresleep(&b->lock);
    80002094:	01048513          	addi	a0,s1,16
    80002098:	206010ef          	jal	8000329e <acquiresleep>
      return b;
    8000209c:	a889                	j	800020ee <bread+0xb4>
  for(b = bcache.head.prev; b != &bcache.head; b = b->prev){
    8000209e:	00016497          	auipc	s1,0x16
    800020a2:	37a4b483          	ld	s1,890(s1) # 80018418 <bcache+0x82b0>
    800020a6:	00016797          	auipc	a5,0x16
    800020aa:	32a78793          	addi	a5,a5,810 # 800183d0 <bcache+0x8268>
    800020ae:	00f48863          	beq	s1,a5,800020be <bread+0x84>
    800020b2:	873e                	mv	a4,a5
    if(b->refcnt == 0) {
    800020b4:	40bc                	lw	a5,64(s1)
    800020b6:	cb91                	beqz	a5,800020ca <bread+0x90>
  for(b = bcache.head.prev; b != &bcache.head; b = b->prev){
    800020b8:	64a4                	ld	s1,72(s1)
    800020ba:	fee49de3          	bne	s1,a4,800020b4 <bread+0x7a>
  panic("bget: no buffers");
    800020be:	00005517          	auipc	a0,0x5
    800020c2:	32250513          	addi	a0,a0,802 # 800073e0 <etext+0x3e0>
    800020c6:	578030ef          	jal	8000563e <panic>
      b->dev = dev;
    800020ca:	0124a423          	sw	s2,8(s1)
      b->blockno = blockno;
    800020ce:	0134a623          	sw	s3,12(s1)
      b->valid = 0;
    800020d2:	0004a023          	sw	zero,0(s1)
      b->refcnt = 1;
    800020d6:	4785                	li	a5,1
    800020d8:	c0bc                	sw	a5,64(s1)
      release(&bcache.lock);
    800020da:	0000e517          	auipc	a0,0xe
    800020de:	08e50513          	addi	a0,a0,142 # 80010168 <bcache>
    800020e2:	12f030ef          	jal	80005a10 <release>
      acquiresleep(&b->lock);
    800020e6:	01048513          	addi	a0,s1,16
    800020ea:	1b4010ef          	jal	8000329e <acquiresleep>
  struct buf *b;

  b = bget(dev, blockno);
  if(!b->valid) {
    800020ee:	409c                	lw	a5,0(s1)
    800020f0:	cb89                	beqz	a5,80002102 <bread+0xc8>
    virtio_disk_rw(b, 0);
    b->valid = 1;
  }
  return b;
}
    800020f2:	8526                	mv	a0,s1
    800020f4:	70a2                	ld	ra,40(sp)
    800020f6:	7402                	ld	s0,32(sp)
    800020f8:	64e2                	ld	s1,24(sp)
    800020fa:	6942                	ld	s2,16(sp)
    800020fc:	69a2                	ld	s3,8(sp)
    800020fe:	6145                	addi	sp,sp,48
    80002100:	8082                	ret
    virtio_disk_rw(b, 0);
    80002102:	4581                	li	a1,0
    80002104:	8526                	mv	a0,s1
    80002106:	2bb020ef          	jal	80004bc0 <virtio_disk_rw>
    b->valid = 1;
    8000210a:	4785                	li	a5,1
    8000210c:	c09c                	sw	a5,0(s1)
  return b;
    8000210e:	b7d5                	j	800020f2 <bread+0xb8>

0000000080002110 <bwrite>:

// Write b's contents to disk.  Must be locked.
void
bwrite(struct buf *b)
{
    80002110:	1101                	addi	sp,sp,-32
    80002112:	ec06                	sd	ra,24(sp)
    80002114:	e822                	sd	s0,16(sp)
    80002116:	e426                	sd	s1,8(sp)
    80002118:	1000                	addi	s0,sp,32
    8000211a:	84aa                	mv	s1,a0
  if(!holdingsleep(&b->lock))
    8000211c:	0541                	addi	a0,a0,16
    8000211e:	1fe010ef          	jal	8000331c <holdingsleep>
    80002122:	c911                	beqz	a0,80002136 <bwrite+0x26>
    panic("bwrite");
  virtio_disk_rw(b, 1);
    80002124:	4585                	li	a1,1
    80002126:	8526                	mv	a0,s1
    80002128:	299020ef          	jal	80004bc0 <virtio_disk_rw>
}
    8000212c:	60e2                	ld	ra,24(sp)
    8000212e:	6442                	ld	s0,16(sp)
    80002130:	64a2                	ld	s1,8(sp)
    80002132:	6105                	addi	sp,sp,32
    80002134:	8082                	ret
    panic("bwrite");
    80002136:	00005517          	auipc	a0,0x5
    8000213a:	2c250513          	addi	a0,a0,706 # 800073f8 <etext+0x3f8>
    8000213e:	500030ef          	jal	8000563e <panic>

0000000080002142 <brelse>:

// Release a locked buffer.
// Move to the head of the most-recently-used list.
void
brelse(struct buf *b)
{
    80002142:	1101                	addi	sp,sp,-32
    80002144:	ec06                	sd	ra,24(sp)
    80002146:	e822                	sd	s0,16(sp)
    80002148:	e426                	sd	s1,8(sp)
    8000214a:	e04a                	sd	s2,0(sp)
    8000214c:	1000                	addi	s0,sp,32
    8000214e:	84aa                	mv	s1,a0
  if(!holdingsleep(&b->lock))
    80002150:	01050913          	addi	s2,a0,16
    80002154:	854a                	mv	a0,s2
    80002156:	1c6010ef          	jal	8000331c <holdingsleep>
    8000215a:	c125                	beqz	a0,800021ba <brelse+0x78>
    panic("brelse");

  releasesleep(&b->lock);
    8000215c:	854a                	mv	a0,s2
    8000215e:	186010ef          	jal	800032e4 <releasesleep>

  acquire(&bcache.lock);
    80002162:	0000e517          	auipc	a0,0xe
    80002166:	00650513          	addi	a0,a0,6 # 80010168 <bcache>
    8000216a:	013030ef          	jal	8000597c <acquire>
  b->refcnt--;
    8000216e:	40bc                	lw	a5,64(s1)
    80002170:	37fd                	addiw	a5,a5,-1
    80002172:	c0bc                	sw	a5,64(s1)
  if (b->refcnt == 0) {
    80002174:	e79d                	bnez	a5,800021a2 <brelse+0x60>
    // no one is waiting for it.
    b->next->prev = b->prev;
    80002176:	68b8                	ld	a4,80(s1)
    80002178:	64bc                	ld	a5,72(s1)
    8000217a:	e73c                	sd	a5,72(a4)
    b->prev->next = b->next;
    8000217c:	68b8                	ld	a4,80(s1)
    8000217e:	ebb8                	sd	a4,80(a5)
    b->next = bcache.head.next;
    80002180:	00016797          	auipc	a5,0x16
    80002184:	fe878793          	addi	a5,a5,-24 # 80018168 <bcache+0x8000>
    80002188:	2b87b703          	ld	a4,696(a5)
    8000218c:	e8b8                	sd	a4,80(s1)
    b->prev = &bcache.head;
    8000218e:	00016717          	auipc	a4,0x16
    80002192:	24270713          	addi	a4,a4,578 # 800183d0 <bcache+0x8268>
    80002196:	e4b8                	sd	a4,72(s1)
    bcache.head.next->prev = b;
    80002198:	2b87b703          	ld	a4,696(a5)
    8000219c:	e724                	sd	s1,72(a4)
    bcache.head.next = b;
    8000219e:	2a97bc23          	sd	s1,696(a5)
  }
  
  release(&bcache.lock);
    800021a2:	0000e517          	auipc	a0,0xe
    800021a6:	fc650513          	addi	a0,a0,-58 # 80010168 <bcache>
    800021aa:	067030ef          	jal	80005a10 <release>
}
    800021ae:	60e2                	ld	ra,24(sp)
    800021b0:	6442                	ld	s0,16(sp)
    800021b2:	64a2                	ld	s1,8(sp)
    800021b4:	6902                	ld	s2,0(sp)
    800021b6:	6105                	addi	sp,sp,32
    800021b8:	8082                	ret
    panic("brelse");
    800021ba:	00005517          	auipc	a0,0x5
    800021be:	24650513          	addi	a0,a0,582 # 80007400 <etext+0x400>
    800021c2:	47c030ef          	jal	8000563e <panic>

00000000800021c6 <bpin>:

void
bpin(struct buf *b) {
    800021c6:	1101                	addi	sp,sp,-32
    800021c8:	ec06                	sd	ra,24(sp)
    800021ca:	e822                	sd	s0,16(sp)
    800021cc:	e426                	sd	s1,8(sp)
    800021ce:	1000                	addi	s0,sp,32
    800021d0:	84aa                	mv	s1,a0
  acquire(&bcache.lock);
    800021d2:	0000e517          	auipc	a0,0xe
    800021d6:	f9650513          	addi	a0,a0,-106 # 80010168 <bcache>
    800021da:	7a2030ef          	jal	8000597c <acquire>
  b->refcnt++;
    800021de:	40bc                	lw	a5,64(s1)
    800021e0:	2785                	addiw	a5,a5,1
    800021e2:	c0bc                	sw	a5,64(s1)
  release(&bcache.lock);
    800021e4:	0000e517          	auipc	a0,0xe
    800021e8:	f8450513          	addi	a0,a0,-124 # 80010168 <bcache>
    800021ec:	025030ef          	jal	80005a10 <release>
}
    800021f0:	60e2                	ld	ra,24(sp)
    800021f2:	6442                	ld	s0,16(sp)
    800021f4:	64a2                	ld	s1,8(sp)
    800021f6:	6105                	addi	sp,sp,32
    800021f8:	8082                	ret

00000000800021fa <bunpin>:

void
bunpin(struct buf *b) {
    800021fa:	1101                	addi	sp,sp,-32
    800021fc:	ec06                	sd	ra,24(sp)
    800021fe:	e822                	sd	s0,16(sp)
    80002200:	e426                	sd	s1,8(sp)
    80002202:	1000                	addi	s0,sp,32
    80002204:	84aa                	mv	s1,a0
  acquire(&bcache.lock);
    80002206:	0000e517          	auipc	a0,0xe
    8000220a:	f6250513          	addi	a0,a0,-158 # 80010168 <bcache>
    8000220e:	76e030ef          	jal	8000597c <acquire>
  b->refcnt--;
    80002212:	40bc                	lw	a5,64(s1)
    80002214:	37fd                	addiw	a5,a5,-1
    80002216:	c0bc                	sw	a5,64(s1)
  release(&bcache.lock);
    80002218:	0000e517          	auipc	a0,0xe
    8000221c:	f5050513          	addi	a0,a0,-176 # 80010168 <bcache>
    80002220:	7f0030ef          	jal	80005a10 <release>
}
    80002224:	60e2                	ld	ra,24(sp)
    80002226:	6442                	ld	s0,16(sp)
    80002228:	64a2                	ld	s1,8(sp)
    8000222a:	6105                	addi	sp,sp,32
    8000222c:	8082                	ret

000000008000222e <bfree>:
}

// Free a disk block.
static void
bfree(int dev, uint b)
{
    8000222e:	1101                	addi	sp,sp,-32
    80002230:	ec06                	sd	ra,24(sp)
    80002232:	e822                	sd	s0,16(sp)
    80002234:	e426                	sd	s1,8(sp)
    80002236:	e04a                	sd	s2,0(sp)
    80002238:	1000                	addi	s0,sp,32
    8000223a:	84ae                	mv	s1,a1
  struct buf *bp;
  int bi, m;

  bp = bread(dev, BBLOCK(b, sb));
    8000223c:	00d5d79b          	srliw	a5,a1,0xd
    80002240:	00016597          	auipc	a1,0x16
    80002244:	6045a583          	lw	a1,1540(a1) # 80018844 <sb+0x1c>
    80002248:	9dbd                	addw	a1,a1,a5
    8000224a:	df1ff0ef          	jal	8000203a <bread>
  bi = b % BPB;
  m = 1 << (bi % 8);
    8000224e:	0074f713          	andi	a4,s1,7
    80002252:	4785                	li	a5,1
    80002254:	00e797bb          	sllw	a5,a5,a4
  bi = b % BPB;
    80002258:	14ce                	slli	s1,s1,0x33
  if ((bp->data[bi / 8] & m) == 0)
    8000225a:	90d9                	srli	s1,s1,0x36
    8000225c:	00950733          	add	a4,a0,s1
    80002260:	05874703          	lbu	a4,88(a4)
    80002264:	00e7f6b3          	and	a3,a5,a4
    80002268:	c29d                	beqz	a3,8000228e <bfree+0x60>
    8000226a:	892a                	mv	s2,a0
    panic("freeing free block");
  bp->data[bi / 8] &= ~m;
    8000226c:	94aa                	add	s1,s1,a0
    8000226e:	fff7c793          	not	a5,a5
    80002272:	8f7d                	and	a4,a4,a5
    80002274:	04e48c23          	sb	a4,88(s1)
  log_write(bp);
    80002278:	71f000ef          	jal	80003196 <log_write>
  brelse(bp);
    8000227c:	854a                	mv	a0,s2
    8000227e:	ec5ff0ef          	jal	80002142 <brelse>
}
    80002282:	60e2                	ld	ra,24(sp)
    80002284:	6442                	ld	s0,16(sp)
    80002286:	64a2                	ld	s1,8(sp)
    80002288:	6902                	ld	s2,0(sp)
    8000228a:	6105                	addi	sp,sp,32
    8000228c:	8082                	ret
    panic("freeing free block");
    8000228e:	00005517          	auipc	a0,0x5
    80002292:	17a50513          	addi	a0,a0,378 # 80007408 <etext+0x408>
    80002296:	3a8030ef          	jal	8000563e <panic>

000000008000229a <balloc>:
{
    8000229a:	715d                	addi	sp,sp,-80
    8000229c:	e486                	sd	ra,72(sp)
    8000229e:	e0a2                	sd	s0,64(sp)
    800022a0:	fc26                	sd	s1,56(sp)
    800022a2:	0880                	addi	s0,sp,80
  for (b = 0; b < sb.size; b += BPB)
    800022a4:	00016797          	auipc	a5,0x16
    800022a8:	5887a783          	lw	a5,1416(a5) # 8001882c <sb+0x4>
    800022ac:	0e078263          	beqz	a5,80002390 <balloc+0xf6>
    800022b0:	f84a                	sd	s2,48(sp)
    800022b2:	f44e                	sd	s3,40(sp)
    800022b4:	f052                	sd	s4,32(sp)
    800022b6:	ec56                	sd	s5,24(sp)
    800022b8:	e85a                	sd	s6,16(sp)
    800022ba:	e45e                	sd	s7,8(sp)
    800022bc:	e062                	sd	s8,0(sp)
    800022be:	8baa                	mv	s7,a0
    800022c0:	4a81                	li	s5,0
    bp = bread(dev, BBLOCK(b, sb));
    800022c2:	00016b17          	auipc	s6,0x16
    800022c6:	566b0b13          	addi	s6,s6,1382 # 80018828 <sb>
      m = 1 << (bi % 8);
    800022ca:	4985                	li	s3,1
    for (bi = 0; bi < BPB && b + bi < sb.size; bi++)
    800022cc:	6a09                	lui	s4,0x2
  for (b = 0; b < sb.size; b += BPB)
    800022ce:	6c09                	lui	s8,0x2
    800022d0:	a09d                	j	80002336 <balloc+0x9c>
        bp->data[bi / 8] |= m; // Mark block in use.
    800022d2:	97ca                	add	a5,a5,s2
    800022d4:	8e55                	or	a2,a2,a3
    800022d6:	04c78c23          	sb	a2,88(a5)
        log_write(bp);
    800022da:	854a                	mv	a0,s2
    800022dc:	6bb000ef          	jal	80003196 <log_write>
        brelse(bp);
    800022e0:	854a                	mv	a0,s2
    800022e2:	e61ff0ef          	jal	80002142 <brelse>
  bp = bread(dev, bno);
    800022e6:	85a6                	mv	a1,s1
    800022e8:	855e                	mv	a0,s7
    800022ea:	d51ff0ef          	jal	8000203a <bread>
    800022ee:	892a                	mv	s2,a0
  memset(bp->data, 0, BSIZE);
    800022f0:	40000613          	li	a2,1024
    800022f4:	4581                	li	a1,0
    800022f6:	05850513          	addi	a0,a0,88
    800022fa:	e65fd0ef          	jal	8000015e <memset>
  log_write(bp);
    800022fe:	854a                	mv	a0,s2
    80002300:	697000ef          	jal	80003196 <log_write>
  brelse(bp);
    80002304:	854a                	mv	a0,s2
    80002306:	e3dff0ef          	jal	80002142 <brelse>
}
    8000230a:	7942                	ld	s2,48(sp)
    8000230c:	79a2                	ld	s3,40(sp)
    8000230e:	7a02                	ld	s4,32(sp)
    80002310:	6ae2                	ld	s5,24(sp)
    80002312:	6b42                	ld	s6,16(sp)
    80002314:	6ba2                	ld	s7,8(sp)
    80002316:	6c02                	ld	s8,0(sp)
}
    80002318:	8526                	mv	a0,s1
    8000231a:	60a6                	ld	ra,72(sp)
    8000231c:	6406                	ld	s0,64(sp)
    8000231e:	74e2                	ld	s1,56(sp)
    80002320:	6161                	addi	sp,sp,80
    80002322:	8082                	ret
    brelse(bp);
    80002324:	854a                	mv	a0,s2
    80002326:	e1dff0ef          	jal	80002142 <brelse>
  for (b = 0; b < sb.size; b += BPB)
    8000232a:	015c0abb          	addw	s5,s8,s5
    8000232e:	004b2783          	lw	a5,4(s6)
    80002332:	04faf863          	bgeu	s5,a5,80002382 <balloc+0xe8>
    bp = bread(dev, BBLOCK(b, sb));
    80002336:	40dad59b          	sraiw	a1,s5,0xd
    8000233a:	01cb2783          	lw	a5,28(s6)
    8000233e:	9dbd                	addw	a1,a1,a5
    80002340:	855e                	mv	a0,s7
    80002342:	cf9ff0ef          	jal	8000203a <bread>
    80002346:	892a                	mv	s2,a0
    for (bi = 0; bi < BPB && b + bi < sb.size; bi++)
    80002348:	004b2503          	lw	a0,4(s6)
    8000234c:	84d6                	mv	s1,s5
    8000234e:	4701                	li	a4,0
    80002350:	fca4fae3          	bgeu	s1,a0,80002324 <balloc+0x8a>
      m = 1 << (bi % 8);
    80002354:	00777693          	andi	a3,a4,7
    80002358:	00d996bb          	sllw	a3,s3,a3
      if ((bp->data[bi / 8] & m) == 0)
    8000235c:	41f7579b          	sraiw	a5,a4,0x1f
    80002360:	01d7d79b          	srliw	a5,a5,0x1d
    80002364:	9fb9                	addw	a5,a5,a4
    80002366:	4037d79b          	sraiw	a5,a5,0x3
    8000236a:	00f90633          	add	a2,s2,a5
    8000236e:	05864603          	lbu	a2,88(a2)
    80002372:	00c6f5b3          	and	a1,a3,a2
    80002376:	ddb1                	beqz	a1,800022d2 <balloc+0x38>
    for (bi = 0; bi < BPB && b + bi < sb.size; bi++)
    80002378:	2705                	addiw	a4,a4,1
    8000237a:	2485                	addiw	s1,s1,1
    8000237c:	fd471ae3          	bne	a4,s4,80002350 <balloc+0xb6>
    80002380:	b755                	j	80002324 <balloc+0x8a>
    80002382:	7942                	ld	s2,48(sp)
    80002384:	79a2                	ld	s3,40(sp)
    80002386:	7a02                	ld	s4,32(sp)
    80002388:	6ae2                	ld	s5,24(sp)
    8000238a:	6b42                	ld	s6,16(sp)
    8000238c:	6ba2                	ld	s7,8(sp)
    8000238e:	6c02                	ld	s8,0(sp)
  printf("balloc: out of blocks\n");
    80002390:	00005517          	auipc	a0,0x5
    80002394:	09050513          	addi	a0,a0,144 # 80007420 <etext+0x420>
    80002398:	797020ef          	jal	8000532e <printf>
  return 0;
    8000239c:	4481                	li	s1,0
    8000239e:	bfad                	j	80002318 <balloc+0x7e>

00000000800023a0 <bmap>:
// Return the disk block address of the nth block in inode ip.
// If there is no such block, bmap allocates one.
// returns 0 if out of disk space.
static uint
bmap(struct inode *ip, uint bn)
{
    800023a0:	7179                	addi	sp,sp,-48
    800023a2:	f406                	sd	ra,40(sp)
    800023a4:	f022                	sd	s0,32(sp)
    800023a6:	ec26                	sd	s1,24(sp)
    800023a8:	e84a                	sd	s2,16(sp)
    800023aa:	e44e                	sd	s3,8(sp)
    800023ac:	1800                	addi	s0,sp,48
    800023ae:	892a                	mv	s2,a0
  uint addr, *a;
  struct buf *bp;

  if (bn < NDIRECT)
    800023b0:	47ad                	li	a5,11
    800023b2:	02b7e363          	bltu	a5,a1,800023d8 <bmap+0x38>
  {
    if ((addr = ip->addrs[bn]) == 0)
    800023b6:	02059793          	slli	a5,a1,0x20
    800023ba:	01e7d593          	srli	a1,a5,0x1e
    800023be:	00b509b3          	add	s3,a0,a1
    800023c2:	0509a483          	lw	s1,80(s3)
    800023c6:	e0b5                	bnez	s1,8000242a <bmap+0x8a>
    {
      addr = balloc(ip->dev);
    800023c8:	4108                	lw	a0,0(a0)
    800023ca:	ed1ff0ef          	jal	8000229a <balloc>
    800023ce:	84aa                	mv	s1,a0
      if (addr == 0)
    800023d0:	cd29                	beqz	a0,8000242a <bmap+0x8a>
        return 0;
      ip->addrs[bn] = addr;
    800023d2:	04a9a823          	sw	a0,80(s3)
    800023d6:	a891                	j	8000242a <bmap+0x8a>
    }
    return addr;
  }
  bn -= NDIRECT;
    800023d8:	ff45879b          	addiw	a5,a1,-12
    800023dc:	873e                	mv	a4,a5
    800023de:	89be                	mv	s3,a5

  if (bn < NINDIRECT)
    800023e0:	0ff00793          	li	a5,255
    800023e4:	06e7e763          	bltu	a5,a4,80002452 <bmap+0xb2>
  {
    // Load indirect block, allocating if necessary.
    if ((addr = ip->addrs[NDIRECT]) == 0)
    800023e8:	08052483          	lw	s1,128(a0)
    800023ec:	e891                	bnez	s1,80002400 <bmap+0x60>
    {
      addr = balloc(ip->dev);
    800023ee:	4108                	lw	a0,0(a0)
    800023f0:	eabff0ef          	jal	8000229a <balloc>
    800023f4:	84aa                	mv	s1,a0
      if (addr == 0)
    800023f6:	c915                	beqz	a0,8000242a <bmap+0x8a>
    800023f8:	e052                	sd	s4,0(sp)
        return 0;
      ip->addrs[NDIRECT] = addr;
    800023fa:	08a92023          	sw	a0,128(s2)
    800023fe:	a011                	j	80002402 <bmap+0x62>
    80002400:	e052                	sd	s4,0(sp)
    }
    bp = bread(ip->dev, addr);
    80002402:	85a6                	mv	a1,s1
    80002404:	00092503          	lw	a0,0(s2)
    80002408:	c33ff0ef          	jal	8000203a <bread>
    8000240c:	8a2a                	mv	s4,a0
    a = (uint *)bp->data;
    8000240e:	05850793          	addi	a5,a0,88
    if ((addr = a[bn]) == 0)
    80002412:	02099713          	slli	a4,s3,0x20
    80002416:	01e75593          	srli	a1,a4,0x1e
    8000241a:	97ae                	add	a5,a5,a1
    8000241c:	89be                	mv	s3,a5
    8000241e:	4384                	lw	s1,0(a5)
    80002420:	cc89                	beqz	s1,8000243a <bmap+0x9a>
      {
        a[bn] = addr;
        log_write(bp);
      }
    }
    brelse(bp);
    80002422:	8552                	mv	a0,s4
    80002424:	d1fff0ef          	jal	80002142 <brelse>
    return addr;
    80002428:	6a02                	ld	s4,0(sp)
  }

  panic("bmap: out of range");
}
    8000242a:	8526                	mv	a0,s1
    8000242c:	70a2                	ld	ra,40(sp)
    8000242e:	7402                	ld	s0,32(sp)
    80002430:	64e2                	ld	s1,24(sp)
    80002432:	6942                	ld	s2,16(sp)
    80002434:	69a2                	ld	s3,8(sp)
    80002436:	6145                	addi	sp,sp,48
    80002438:	8082                	ret
      addr = balloc(ip->dev);
    8000243a:	00092503          	lw	a0,0(s2)
    8000243e:	e5dff0ef          	jal	8000229a <balloc>
    80002442:	84aa                	mv	s1,a0
      if (addr)
    80002444:	dd79                	beqz	a0,80002422 <bmap+0x82>
        a[bn] = addr;
    80002446:	00a9a023          	sw	a0,0(s3)
        log_write(bp);
    8000244a:	8552                	mv	a0,s4
    8000244c:	54b000ef          	jal	80003196 <log_write>
    80002450:	bfc9                	j	80002422 <bmap+0x82>
    80002452:	e052                	sd	s4,0(sp)
  panic("bmap: out of range");
    80002454:	00005517          	auipc	a0,0x5
    80002458:	fe450513          	addi	a0,a0,-28 # 80007438 <etext+0x438>
    8000245c:	1e2030ef          	jal	8000563e <panic>

0000000080002460 <iget>:
{
    80002460:	7179                	addi	sp,sp,-48
    80002462:	f406                	sd	ra,40(sp)
    80002464:	f022                	sd	s0,32(sp)
    80002466:	ec26                	sd	s1,24(sp)
    80002468:	e84a                	sd	s2,16(sp)
    8000246a:	e44e                	sd	s3,8(sp)
    8000246c:	e052                	sd	s4,0(sp)
    8000246e:	1800                	addi	s0,sp,48
    80002470:	892a                	mv	s2,a0
    80002472:	8a2e                	mv	s4,a1
  acquire(&itable.lock);
    80002474:	00016517          	auipc	a0,0x16
    80002478:	3d450513          	addi	a0,a0,980 # 80018848 <itable>
    8000247c:	500030ef          	jal	8000597c <acquire>
  empty = 0;
    80002480:	4981                	li	s3,0
  for (ip = &itable.inode[0]; ip < &itable.inode[NINODE]; ip++)
    80002482:	00016497          	auipc	s1,0x16
    80002486:	3de48493          	addi	s1,s1,990 # 80018860 <itable+0x18>
    8000248a:	00018697          	auipc	a3,0x18
    8000248e:	e6668693          	addi	a3,a3,-410 # 8001a2f0 <log>
    80002492:	a809                	j	800024a4 <iget+0x44>
    if (empty == 0 && ip->ref == 0) // Remember empty slot.
    80002494:	e781                	bnez	a5,8000249c <iget+0x3c>
    80002496:	00099363          	bnez	s3,8000249c <iget+0x3c>
      empty = ip;
    8000249a:	89a6                	mv	s3,s1
  for (ip = &itable.inode[0]; ip < &itable.inode[NINODE]; ip++)
    8000249c:	08848493          	addi	s1,s1,136
    800024a0:	02d48563          	beq	s1,a3,800024ca <iget+0x6a>
    if (ip->ref > 0 && ip->dev == dev && ip->inum == inum)
    800024a4:	449c                	lw	a5,8(s1)
    800024a6:	fef057e3          	blez	a5,80002494 <iget+0x34>
    800024aa:	4098                	lw	a4,0(s1)
    800024ac:	ff2718e3          	bne	a4,s2,8000249c <iget+0x3c>
    800024b0:	40d8                	lw	a4,4(s1)
    800024b2:	ff4715e3          	bne	a4,s4,8000249c <iget+0x3c>
      ip->ref++;
    800024b6:	2785                	addiw	a5,a5,1
    800024b8:	c49c                	sw	a5,8(s1)
      release(&itable.lock);
    800024ba:	00016517          	auipc	a0,0x16
    800024be:	38e50513          	addi	a0,a0,910 # 80018848 <itable>
    800024c2:	54e030ef          	jal	80005a10 <release>
      return ip;
    800024c6:	89a6                	mv	s3,s1
    800024c8:	a015                	j	800024ec <iget+0x8c>
  if (empty == 0)
    800024ca:	02098a63          	beqz	s3,800024fe <iget+0x9e>
  ip->dev = dev;
    800024ce:	0129a023          	sw	s2,0(s3)
  ip->inum = inum;
    800024d2:	0149a223          	sw	s4,4(s3)
  ip->ref = 1;
    800024d6:	4785                	li	a5,1
    800024d8:	00f9a423          	sw	a5,8(s3)
  ip->valid = 0;
    800024dc:	0409a023          	sw	zero,64(s3)
  release(&itable.lock);
    800024e0:	00016517          	auipc	a0,0x16
    800024e4:	36850513          	addi	a0,a0,872 # 80018848 <itable>
    800024e8:	528030ef          	jal	80005a10 <release>
}
    800024ec:	854e                	mv	a0,s3
    800024ee:	70a2                	ld	ra,40(sp)
    800024f0:	7402                	ld	s0,32(sp)
    800024f2:	64e2                	ld	s1,24(sp)
    800024f4:	6942                	ld	s2,16(sp)
    800024f6:	69a2                	ld	s3,8(sp)
    800024f8:	6a02                	ld	s4,0(sp)
    800024fa:	6145                	addi	sp,sp,48
    800024fc:	8082                	ret
    panic("iget: no inodes");
    800024fe:	00005517          	auipc	a0,0x5
    80002502:	f5250513          	addi	a0,a0,-174 # 80007450 <etext+0x450>
    80002506:	138030ef          	jal	8000563e <panic>

000000008000250a <fsinit>:
{
    8000250a:	1101                	addi	sp,sp,-32
    8000250c:	ec06                	sd	ra,24(sp)
    8000250e:	e822                	sd	s0,16(sp)
    80002510:	e426                	sd	s1,8(sp)
    80002512:	e04a                	sd	s2,0(sp)
    80002514:	1000                	addi	s0,sp,32
    80002516:	892a                	mv	s2,a0
  bp = bread(dev, 1);
    80002518:	4585                	li	a1,1
    8000251a:	b21ff0ef          	jal	8000203a <bread>
    8000251e:	84aa                	mv	s1,a0
  memmove(sb, bp->data, sizeof(*sb));
    80002520:	02000613          	li	a2,32
    80002524:	05850593          	addi	a1,a0,88
    80002528:	00016517          	auipc	a0,0x16
    8000252c:	30050513          	addi	a0,a0,768 # 80018828 <sb>
    80002530:	c8ffd0ef          	jal	800001be <memmove>
  brelse(bp);
    80002534:	8526                	mv	a0,s1
    80002536:	c0dff0ef          	jal	80002142 <brelse>
  if (sb.magic != FSMAGIC)
    8000253a:	00016717          	auipc	a4,0x16
    8000253e:	2ee72703          	lw	a4,750(a4) # 80018828 <sb>
    80002542:	102037b7          	lui	a5,0x10203
    80002546:	04078793          	addi	a5,a5,64 # 10203040 <_entry-0x6fdfcfc0>
    8000254a:	00f71f63          	bne	a4,a5,80002568 <fsinit+0x5e>
  initlog(dev, &sb);
    8000254e:	00016597          	auipc	a1,0x16
    80002552:	2da58593          	addi	a1,a1,730 # 80018828 <sb>
    80002556:	854a                	mv	a0,s2
    80002558:	221000ef          	jal	80002f78 <initlog>
}
    8000255c:	60e2                	ld	ra,24(sp)
    8000255e:	6442                	ld	s0,16(sp)
    80002560:	64a2                	ld	s1,8(sp)
    80002562:	6902                	ld	s2,0(sp)
    80002564:	6105                	addi	sp,sp,32
    80002566:	8082                	ret
    panic("invalid file system");
    80002568:	00005517          	auipc	a0,0x5
    8000256c:	ef850513          	addi	a0,a0,-264 # 80007460 <etext+0x460>
    80002570:	0ce030ef          	jal	8000563e <panic>

0000000080002574 <iinit>:
{
    80002574:	7179                	addi	sp,sp,-48
    80002576:	f406                	sd	ra,40(sp)
    80002578:	f022                	sd	s0,32(sp)
    8000257a:	ec26                	sd	s1,24(sp)
    8000257c:	e84a                	sd	s2,16(sp)
    8000257e:	e44e                	sd	s3,8(sp)
    80002580:	1800                	addi	s0,sp,48
  initlock(&itable.lock, "itable");
    80002582:	00005597          	auipc	a1,0x5
    80002586:	ef658593          	addi	a1,a1,-266 # 80007478 <etext+0x478>
    8000258a:	00016517          	auipc	a0,0x16
    8000258e:	2be50513          	addi	a0,a0,702 # 80018848 <itable>
    80002592:	360030ef          	jal	800058f2 <initlock>
  for (i = 0; i < NINODE; i++)
    80002596:	00016497          	auipc	s1,0x16
    8000259a:	2da48493          	addi	s1,s1,730 # 80018870 <itable+0x28>
    8000259e:	00018997          	auipc	s3,0x18
    800025a2:	d6298993          	addi	s3,s3,-670 # 8001a300 <log+0x10>
    initsleeplock(&itable.inode[i].lock, "inode");
    800025a6:	00005917          	auipc	s2,0x5
    800025aa:	eda90913          	addi	s2,s2,-294 # 80007480 <etext+0x480>
    800025ae:	85ca                	mv	a1,s2
    800025b0:	8526                	mv	a0,s1
    800025b2:	4b7000ef          	jal	80003268 <initsleeplock>
  for (i = 0; i < NINODE; i++)
    800025b6:	08848493          	addi	s1,s1,136
    800025ba:	ff349ae3          	bne	s1,s3,800025ae <iinit+0x3a>
}
    800025be:	70a2                	ld	ra,40(sp)
    800025c0:	7402                	ld	s0,32(sp)
    800025c2:	64e2                	ld	s1,24(sp)
    800025c4:	6942                	ld	s2,16(sp)
    800025c6:	69a2                	ld	s3,8(sp)
    800025c8:	6145                	addi	sp,sp,48
    800025ca:	8082                	ret

00000000800025cc <ialloc>:
{
    800025cc:	7139                	addi	sp,sp,-64
    800025ce:	fc06                	sd	ra,56(sp)
    800025d0:	f822                	sd	s0,48(sp)
    800025d2:	0080                	addi	s0,sp,64
  for (inum = 1; inum < sb.ninodes; inum++)
    800025d4:	00016717          	auipc	a4,0x16
    800025d8:	26072703          	lw	a4,608(a4) # 80018834 <sb+0xc>
    800025dc:	4785                	li	a5,1
    800025de:	06e7f063          	bgeu	a5,a4,8000263e <ialloc+0x72>
    800025e2:	f426                	sd	s1,40(sp)
    800025e4:	f04a                	sd	s2,32(sp)
    800025e6:	ec4e                	sd	s3,24(sp)
    800025e8:	e852                	sd	s4,16(sp)
    800025ea:	e456                	sd	s5,8(sp)
    800025ec:	e05a                	sd	s6,0(sp)
    800025ee:	8aaa                	mv	s5,a0
    800025f0:	8b2e                	mv	s6,a1
    800025f2:	893e                	mv	s2,a5
    bp = bread(dev, IBLOCK(inum, sb));
    800025f4:	00016a17          	auipc	s4,0x16
    800025f8:	234a0a13          	addi	s4,s4,564 # 80018828 <sb>
    800025fc:	00495593          	srli	a1,s2,0x4
    80002600:	018a2783          	lw	a5,24(s4)
    80002604:	9dbd                	addw	a1,a1,a5
    80002606:	8556                	mv	a0,s5
    80002608:	a33ff0ef          	jal	8000203a <bread>
    8000260c:	84aa                	mv	s1,a0
    dip = (struct dinode *)bp->data + inum % IPB;
    8000260e:	05850993          	addi	s3,a0,88
    80002612:	00f97793          	andi	a5,s2,15
    80002616:	079a                	slli	a5,a5,0x6
    80002618:	99be                	add	s3,s3,a5
    if (dip->type == 0)
    8000261a:	00099783          	lh	a5,0(s3)
    8000261e:	cb9d                	beqz	a5,80002654 <ialloc+0x88>
    brelse(bp);
    80002620:	b23ff0ef          	jal	80002142 <brelse>
  for (inum = 1; inum < sb.ninodes; inum++)
    80002624:	0905                	addi	s2,s2,1
    80002626:	00ca2703          	lw	a4,12(s4)
    8000262a:	0009079b          	sext.w	a5,s2
    8000262e:	fce7e7e3          	bltu	a5,a4,800025fc <ialloc+0x30>
    80002632:	74a2                	ld	s1,40(sp)
    80002634:	7902                	ld	s2,32(sp)
    80002636:	69e2                	ld	s3,24(sp)
    80002638:	6a42                	ld	s4,16(sp)
    8000263a:	6aa2                	ld	s5,8(sp)
    8000263c:	6b02                	ld	s6,0(sp)
  printf("ialloc: no inodes\n");
    8000263e:	00005517          	auipc	a0,0x5
    80002642:	e4a50513          	addi	a0,a0,-438 # 80007488 <etext+0x488>
    80002646:	4e9020ef          	jal	8000532e <printf>
  return 0;
    8000264a:	4501                	li	a0,0
}
    8000264c:	70e2                	ld	ra,56(sp)
    8000264e:	7442                	ld	s0,48(sp)
    80002650:	6121                	addi	sp,sp,64
    80002652:	8082                	ret
      memset(dip, 0, sizeof(*dip));
    80002654:	04000613          	li	a2,64
    80002658:	4581                	li	a1,0
    8000265a:	854e                	mv	a0,s3
    8000265c:	b03fd0ef          	jal	8000015e <memset>
      dip->type = type;
    80002660:	01699023          	sh	s6,0(s3)
      log_write(bp); // mark it allocated on the disk
    80002664:	8526                	mv	a0,s1
    80002666:	331000ef          	jal	80003196 <log_write>
      brelse(bp);
    8000266a:	8526                	mv	a0,s1
    8000266c:	ad7ff0ef          	jal	80002142 <brelse>
      return iget(dev, inum);
    80002670:	0009059b          	sext.w	a1,s2
    80002674:	8556                	mv	a0,s5
    80002676:	debff0ef          	jal	80002460 <iget>
    8000267a:	74a2                	ld	s1,40(sp)
    8000267c:	7902                	ld	s2,32(sp)
    8000267e:	69e2                	ld	s3,24(sp)
    80002680:	6a42                	ld	s4,16(sp)
    80002682:	6aa2                	ld	s5,8(sp)
    80002684:	6b02                	ld	s6,0(sp)
    80002686:	b7d9                	j	8000264c <ialloc+0x80>

0000000080002688 <iupdate>:
{
    80002688:	1101                	addi	sp,sp,-32
    8000268a:	ec06                	sd	ra,24(sp)
    8000268c:	e822                	sd	s0,16(sp)
    8000268e:	e426                	sd	s1,8(sp)
    80002690:	e04a                	sd	s2,0(sp)
    80002692:	1000                	addi	s0,sp,32
    80002694:	84aa                	mv	s1,a0
  bp = bread(ip->dev, IBLOCK(ip->inum, sb));
    80002696:	415c                	lw	a5,4(a0)
    80002698:	0047d79b          	srliw	a5,a5,0x4
    8000269c:	00016597          	auipc	a1,0x16
    800026a0:	1a45a583          	lw	a1,420(a1) # 80018840 <sb+0x18>
    800026a4:	9dbd                	addw	a1,a1,a5
    800026a6:	4108                	lw	a0,0(a0)
    800026a8:	993ff0ef          	jal	8000203a <bread>
    800026ac:	892a                	mv	s2,a0
  dip = (struct dinode *)bp->data + ip->inum % IPB;
    800026ae:	05850793          	addi	a5,a0,88
    800026b2:	40d8                	lw	a4,4(s1)
    800026b4:	8b3d                	andi	a4,a4,15
    800026b6:	071a                	slli	a4,a4,0x6
    800026b8:	97ba                	add	a5,a5,a4
  dip->type = ip->type;
    800026ba:	04449703          	lh	a4,68(s1)
    800026be:	00e79023          	sh	a4,0(a5)
  dip->major = ip->major;
    800026c2:	04649703          	lh	a4,70(s1)
    800026c6:	00e79123          	sh	a4,2(a5)
  dip->nlink = ip->nlink;
    800026ca:	04a49703          	lh	a4,74(s1)
    800026ce:	00e79323          	sh	a4,6(a5)
  dip->size = ip->size;
    800026d2:	44f8                	lw	a4,76(s1)
    800026d4:	c798                	sw	a4,8(a5)
  dip->mode = ip->mode;
    800026d6:	04849703          	lh	a4,72(s1)
    800026da:	00e79223          	sh	a4,4(a5)
  memmove(dip->addrs, ip->addrs, sizeof(ip->addrs));
    800026de:	03400613          	li	a2,52
    800026e2:	05048593          	addi	a1,s1,80
    800026e6:	00c78513          	addi	a0,a5,12
    800026ea:	ad5fd0ef          	jal	800001be <memmove>
  log_write(bp);
    800026ee:	854a                	mv	a0,s2
    800026f0:	2a7000ef          	jal	80003196 <log_write>
  brelse(bp);
    800026f4:	854a                	mv	a0,s2
    800026f6:	a4dff0ef          	jal	80002142 <brelse>
}
    800026fa:	60e2                	ld	ra,24(sp)
    800026fc:	6442                	ld	s0,16(sp)
    800026fe:	64a2                	ld	s1,8(sp)
    80002700:	6902                	ld	s2,0(sp)
    80002702:	6105                	addi	sp,sp,32
    80002704:	8082                	ret

0000000080002706 <idup>:
{
    80002706:	1101                	addi	sp,sp,-32
    80002708:	ec06                	sd	ra,24(sp)
    8000270a:	e822                	sd	s0,16(sp)
    8000270c:	e426                	sd	s1,8(sp)
    8000270e:	1000                	addi	s0,sp,32
    80002710:	84aa                	mv	s1,a0
  acquire(&itable.lock);
    80002712:	00016517          	auipc	a0,0x16
    80002716:	13650513          	addi	a0,a0,310 # 80018848 <itable>
    8000271a:	262030ef          	jal	8000597c <acquire>
  ip->ref++;
    8000271e:	449c                	lw	a5,8(s1)
    80002720:	2785                	addiw	a5,a5,1
    80002722:	c49c                	sw	a5,8(s1)
  release(&itable.lock);
    80002724:	00016517          	auipc	a0,0x16
    80002728:	12450513          	addi	a0,a0,292 # 80018848 <itable>
    8000272c:	2e4030ef          	jal	80005a10 <release>
}
    80002730:	8526                	mv	a0,s1
    80002732:	60e2                	ld	ra,24(sp)
    80002734:	6442                	ld	s0,16(sp)
    80002736:	64a2                	ld	s1,8(sp)
    80002738:	6105                	addi	sp,sp,32
    8000273a:	8082                	ret

000000008000273c <ilock>:
{
    8000273c:	1101                	addi	sp,sp,-32
    8000273e:	ec06                	sd	ra,24(sp)
    80002740:	e822                	sd	s0,16(sp)
    80002742:	e426                	sd	s1,8(sp)
    80002744:	1000                	addi	s0,sp,32
  if (ip == 0 || ip->ref < 1)
    80002746:	cd19                	beqz	a0,80002764 <ilock+0x28>
    80002748:	84aa                	mv	s1,a0
    8000274a:	451c                	lw	a5,8(a0)
    8000274c:	00f05c63          	blez	a5,80002764 <ilock+0x28>
  acquiresleep(&ip->lock);
    80002750:	0541                	addi	a0,a0,16
    80002752:	34d000ef          	jal	8000329e <acquiresleep>
  if (ip->valid == 0)
    80002756:	40bc                	lw	a5,64(s1)
    80002758:	cf89                	beqz	a5,80002772 <ilock+0x36>
}
    8000275a:	60e2                	ld	ra,24(sp)
    8000275c:	6442                	ld	s0,16(sp)
    8000275e:	64a2                	ld	s1,8(sp)
    80002760:	6105                	addi	sp,sp,32
    80002762:	8082                	ret
    80002764:	e04a                	sd	s2,0(sp)
    panic("ilock");
    80002766:	00005517          	auipc	a0,0x5
    8000276a:	d3a50513          	addi	a0,a0,-710 # 800074a0 <etext+0x4a0>
    8000276e:	6d1020ef          	jal	8000563e <panic>
    80002772:	e04a                	sd	s2,0(sp)
    bp = bread(ip->dev, IBLOCK(ip->inum, sb));
    80002774:	40dc                	lw	a5,4(s1)
    80002776:	0047d79b          	srliw	a5,a5,0x4
    8000277a:	00016597          	auipc	a1,0x16
    8000277e:	0c65a583          	lw	a1,198(a1) # 80018840 <sb+0x18>
    80002782:	9dbd                	addw	a1,a1,a5
    80002784:	4088                	lw	a0,0(s1)
    80002786:	8b5ff0ef          	jal	8000203a <bread>
    8000278a:	892a                	mv	s2,a0
    dip = (struct dinode *)bp->data + ip->inum % IPB;
    8000278c:	05850593          	addi	a1,a0,88
    80002790:	40dc                	lw	a5,4(s1)
    80002792:	8bbd                	andi	a5,a5,15
    80002794:	079a                	slli	a5,a5,0x6
    80002796:	95be                	add	a1,a1,a5
    ip->type = dip->type;
    80002798:	00059783          	lh	a5,0(a1)
    8000279c:	04f49223          	sh	a5,68(s1)
    ip->major = dip->major;
    800027a0:	00259783          	lh	a5,2(a1)
    800027a4:	04f49323          	sh	a5,70(s1)
    ip->nlink = dip->nlink;
    800027a8:	00659783          	lh	a5,6(a1)
    800027ac:	04f49523          	sh	a5,74(s1)
    ip->size = dip->size;
    800027b0:	459c                	lw	a5,8(a1)
    800027b2:	c4fc                	sw	a5,76(s1)
    ip->mode = dip->mode;
    800027b4:	00459783          	lh	a5,4(a1)
    800027b8:	04f49423          	sh	a5,72(s1)
    memmove(ip->addrs, dip->addrs, sizeof(ip->addrs));
    800027bc:	03400613          	li	a2,52
    800027c0:	05b1                	addi	a1,a1,12
    800027c2:	05048513          	addi	a0,s1,80
    800027c6:	9f9fd0ef          	jal	800001be <memmove>
    brelse(bp);
    800027ca:	854a                	mv	a0,s2
    800027cc:	977ff0ef          	jal	80002142 <brelse>
    ip->valid = 1;
    800027d0:	4785                	li	a5,1
    800027d2:	c0bc                	sw	a5,64(s1)
    if (ip->type == 0)
    800027d4:	04449783          	lh	a5,68(s1)
    800027d8:	c399                	beqz	a5,800027de <ilock+0xa2>
    800027da:	6902                	ld	s2,0(sp)
    800027dc:	bfbd                	j	8000275a <ilock+0x1e>
      panic("ilock: no type");
    800027de:	00005517          	auipc	a0,0x5
    800027e2:	cca50513          	addi	a0,a0,-822 # 800074a8 <etext+0x4a8>
    800027e6:	659020ef          	jal	8000563e <panic>

00000000800027ea <iunlock>:
{
    800027ea:	1101                	addi	sp,sp,-32
    800027ec:	ec06                	sd	ra,24(sp)
    800027ee:	e822                	sd	s0,16(sp)
    800027f0:	e426                	sd	s1,8(sp)
    800027f2:	e04a                	sd	s2,0(sp)
    800027f4:	1000                	addi	s0,sp,32
  if (ip == 0 || !holdingsleep(&ip->lock) || ip->ref < 1)
    800027f6:	c505                	beqz	a0,8000281e <iunlock+0x34>
    800027f8:	84aa                	mv	s1,a0
    800027fa:	01050913          	addi	s2,a0,16
    800027fe:	854a                	mv	a0,s2
    80002800:	31d000ef          	jal	8000331c <holdingsleep>
    80002804:	cd09                	beqz	a0,8000281e <iunlock+0x34>
    80002806:	449c                	lw	a5,8(s1)
    80002808:	00f05b63          	blez	a5,8000281e <iunlock+0x34>
  releasesleep(&ip->lock);
    8000280c:	854a                	mv	a0,s2
    8000280e:	2d7000ef          	jal	800032e4 <releasesleep>
}
    80002812:	60e2                	ld	ra,24(sp)
    80002814:	6442                	ld	s0,16(sp)
    80002816:	64a2                	ld	s1,8(sp)
    80002818:	6902                	ld	s2,0(sp)
    8000281a:	6105                	addi	sp,sp,32
    8000281c:	8082                	ret
    panic("iunlock");
    8000281e:	00005517          	auipc	a0,0x5
    80002822:	c9a50513          	addi	a0,a0,-870 # 800074b8 <etext+0x4b8>
    80002826:	619020ef          	jal	8000563e <panic>

000000008000282a <itrunc>:

// Truncate inode (discard contents).
// Caller must hold ip->lock.
void itrunc(struct inode *ip)
{
    8000282a:	7179                	addi	sp,sp,-48
    8000282c:	f406                	sd	ra,40(sp)
    8000282e:	f022                	sd	s0,32(sp)
    80002830:	ec26                	sd	s1,24(sp)
    80002832:	e84a                	sd	s2,16(sp)
    80002834:	e44e                	sd	s3,8(sp)
    80002836:	1800                	addi	s0,sp,48
    80002838:	89aa                	mv	s3,a0
  int i, j;
  struct buf *bp;
  uint *a;

  for (i = 0; i < NDIRECT; i++)
    8000283a:	05050493          	addi	s1,a0,80
    8000283e:	08050913          	addi	s2,a0,128
    80002842:	a021                	j	8000284a <itrunc+0x20>
    80002844:	0491                	addi	s1,s1,4
    80002846:	01248b63          	beq	s1,s2,8000285c <itrunc+0x32>
  {
    if (ip->addrs[i])
    8000284a:	408c                	lw	a1,0(s1)
    8000284c:	dde5                	beqz	a1,80002844 <itrunc+0x1a>
    {
      bfree(ip->dev, ip->addrs[i]);
    8000284e:	0009a503          	lw	a0,0(s3)
    80002852:	9ddff0ef          	jal	8000222e <bfree>
      ip->addrs[i] = 0;
    80002856:	0004a023          	sw	zero,0(s1)
    8000285a:	b7ed                	j	80002844 <itrunc+0x1a>
    }
  }

  if (ip->addrs[NDIRECT])
    8000285c:	0809a583          	lw	a1,128(s3)
    80002860:	ed89                	bnez	a1,8000287a <itrunc+0x50>
    brelse(bp);
    bfree(ip->dev, ip->addrs[NDIRECT]);
    ip->addrs[NDIRECT] = 0;
  }

  ip->size = 0;
    80002862:	0409a623          	sw	zero,76(s3)
  iupdate(ip);
    80002866:	854e                	mv	a0,s3
    80002868:	e21ff0ef          	jal	80002688 <iupdate>
}
    8000286c:	70a2                	ld	ra,40(sp)
    8000286e:	7402                	ld	s0,32(sp)
    80002870:	64e2                	ld	s1,24(sp)
    80002872:	6942                	ld	s2,16(sp)
    80002874:	69a2                	ld	s3,8(sp)
    80002876:	6145                	addi	sp,sp,48
    80002878:	8082                	ret
    8000287a:	e052                	sd	s4,0(sp)
    bp = bread(ip->dev, ip->addrs[NDIRECT]);
    8000287c:	0009a503          	lw	a0,0(s3)
    80002880:	fbaff0ef          	jal	8000203a <bread>
    80002884:	8a2a                	mv	s4,a0
    for (j = 0; j < NINDIRECT; j++)
    80002886:	05850493          	addi	s1,a0,88
    8000288a:	45850913          	addi	s2,a0,1112
    8000288e:	a021                	j	80002896 <itrunc+0x6c>
    80002890:	0491                	addi	s1,s1,4
    80002892:	01248963          	beq	s1,s2,800028a4 <itrunc+0x7a>
      if (a[j])
    80002896:	408c                	lw	a1,0(s1)
    80002898:	dde5                	beqz	a1,80002890 <itrunc+0x66>
        bfree(ip->dev, a[j]);
    8000289a:	0009a503          	lw	a0,0(s3)
    8000289e:	991ff0ef          	jal	8000222e <bfree>
    800028a2:	b7fd                	j	80002890 <itrunc+0x66>
    brelse(bp);
    800028a4:	8552                	mv	a0,s4
    800028a6:	89dff0ef          	jal	80002142 <brelse>
    bfree(ip->dev, ip->addrs[NDIRECT]);
    800028aa:	0809a583          	lw	a1,128(s3)
    800028ae:	0009a503          	lw	a0,0(s3)
    800028b2:	97dff0ef          	jal	8000222e <bfree>
    ip->addrs[NDIRECT] = 0;
    800028b6:	0809a023          	sw	zero,128(s3)
    800028ba:	6a02                	ld	s4,0(sp)
    800028bc:	b75d                	j	80002862 <itrunc+0x38>

00000000800028be <iput>:
{
    800028be:	1101                	addi	sp,sp,-32
    800028c0:	ec06                	sd	ra,24(sp)
    800028c2:	e822                	sd	s0,16(sp)
    800028c4:	e426                	sd	s1,8(sp)
    800028c6:	1000                	addi	s0,sp,32
    800028c8:	84aa                	mv	s1,a0
  acquire(&itable.lock);
    800028ca:	00016517          	auipc	a0,0x16
    800028ce:	f7e50513          	addi	a0,a0,-130 # 80018848 <itable>
    800028d2:	0aa030ef          	jal	8000597c <acquire>
  if (ip->ref == 1 && ip->valid && ip->nlink == 0)
    800028d6:	4498                	lw	a4,8(s1)
    800028d8:	4785                	li	a5,1
    800028da:	02f70063          	beq	a4,a5,800028fa <iput+0x3c>
  ip->ref--;
    800028de:	449c                	lw	a5,8(s1)
    800028e0:	37fd                	addiw	a5,a5,-1
    800028e2:	c49c                	sw	a5,8(s1)
  release(&itable.lock);
    800028e4:	00016517          	auipc	a0,0x16
    800028e8:	f6450513          	addi	a0,a0,-156 # 80018848 <itable>
    800028ec:	124030ef          	jal	80005a10 <release>
}
    800028f0:	60e2                	ld	ra,24(sp)
    800028f2:	6442                	ld	s0,16(sp)
    800028f4:	64a2                	ld	s1,8(sp)
    800028f6:	6105                	addi	sp,sp,32
    800028f8:	8082                	ret
  if (ip->ref == 1 && ip->valid && ip->nlink == 0)
    800028fa:	40bc                	lw	a5,64(s1)
    800028fc:	d3ed                	beqz	a5,800028de <iput+0x20>
    800028fe:	04a49783          	lh	a5,74(s1)
    80002902:	fff1                	bnez	a5,800028de <iput+0x20>
    80002904:	e04a                	sd	s2,0(sp)
    acquiresleep(&ip->lock);
    80002906:	01048793          	addi	a5,s1,16
    8000290a:	893e                	mv	s2,a5
    8000290c:	853e                	mv	a0,a5
    8000290e:	191000ef          	jal	8000329e <acquiresleep>
    release(&itable.lock);
    80002912:	00016517          	auipc	a0,0x16
    80002916:	f3650513          	addi	a0,a0,-202 # 80018848 <itable>
    8000291a:	0f6030ef          	jal	80005a10 <release>
    itrunc(ip);
    8000291e:	8526                	mv	a0,s1
    80002920:	f0bff0ef          	jal	8000282a <itrunc>
    ip->type = 0;
    80002924:	04049223          	sh	zero,68(s1)
    iupdate(ip);
    80002928:	8526                	mv	a0,s1
    8000292a:	d5fff0ef          	jal	80002688 <iupdate>
    ip->valid = 0;
    8000292e:	0404a023          	sw	zero,64(s1)
    releasesleep(&ip->lock);
    80002932:	854a                	mv	a0,s2
    80002934:	1b1000ef          	jal	800032e4 <releasesleep>
    acquire(&itable.lock);
    80002938:	00016517          	auipc	a0,0x16
    8000293c:	f1050513          	addi	a0,a0,-240 # 80018848 <itable>
    80002940:	03c030ef          	jal	8000597c <acquire>
    80002944:	6902                	ld	s2,0(sp)
    80002946:	bf61                	j	800028de <iput+0x20>

0000000080002948 <iunlockput>:
{
    80002948:	1101                	addi	sp,sp,-32
    8000294a:	ec06                	sd	ra,24(sp)
    8000294c:	e822                	sd	s0,16(sp)
    8000294e:	e426                	sd	s1,8(sp)
    80002950:	1000                	addi	s0,sp,32
    80002952:	84aa                	mv	s1,a0
  iunlock(ip);
    80002954:	e97ff0ef          	jal	800027ea <iunlock>
  iput(ip);
    80002958:	8526                	mv	a0,s1
    8000295a:	f65ff0ef          	jal	800028be <iput>
}
    8000295e:	60e2                	ld	ra,24(sp)
    80002960:	6442                	ld	s0,16(sp)
    80002962:	64a2                	ld	s1,8(sp)
    80002964:	6105                	addi	sp,sp,32
    80002966:	8082                	ret

0000000080002968 <stati>:

// Copy stat information from inode.
// Caller must hold ip->lock.
void stati(struct inode *ip, struct stat *st)
{
    80002968:	1141                	addi	sp,sp,-16
    8000296a:	e406                	sd	ra,8(sp)
    8000296c:	e022                	sd	s0,0(sp)
    8000296e:	0800                	addi	s0,sp,16
  st->dev = ip->dev;
    80002970:	411c                	lw	a5,0(a0)
    80002972:	c19c                	sw	a5,0(a1)
  st->ino = ip->inum;
    80002974:	415c                	lw	a5,4(a0)
    80002976:	c1dc                	sw	a5,4(a1)
  st->type = ip->type;
    80002978:	04451783          	lh	a5,68(a0)
    8000297c:	00f59423          	sh	a5,8(a1)
  st->nlink = ip->nlink;
    80002980:	04a51783          	lh	a5,74(a0)
    80002984:	00f59523          	sh	a5,10(a1)
  st->size = ip->size;
    80002988:	04c56783          	lwu	a5,76(a0)
    8000298c:	e99c                	sd	a5,16(a1)
  st->mode = ip->mode;
    8000298e:	04851783          	lh	a5,72(a0)
    80002992:	00f59c23          	sh	a5,24(a1)
}
    80002996:	60a2                	ld	ra,8(sp)
    80002998:	6402                	ld	s0,0(sp)
    8000299a:	0141                	addi	sp,sp,16
    8000299c:	8082                	ret

000000008000299e <readi>:
int readi(struct inode *ip, int user_dst, uint64 dst, uint off, uint n)
{
  uint tot, m;
  struct buf *bp;

  if (off > ip->size || off + n < off)
    8000299e:	457c                	lw	a5,76(a0)
    800029a0:	0ed7e663          	bltu	a5,a3,80002a8c <readi+0xee>
{
    800029a4:	7159                	addi	sp,sp,-112
    800029a6:	f486                	sd	ra,104(sp)
    800029a8:	f0a2                	sd	s0,96(sp)
    800029aa:	eca6                	sd	s1,88(sp)
    800029ac:	e0d2                	sd	s4,64(sp)
    800029ae:	fc56                	sd	s5,56(sp)
    800029b0:	f85a                	sd	s6,48(sp)
    800029b2:	f45e                	sd	s7,40(sp)
    800029b4:	1880                	addi	s0,sp,112
    800029b6:	8b2a                	mv	s6,a0
    800029b8:	8bae                	mv	s7,a1
    800029ba:	8a32                	mv	s4,a2
    800029bc:	84b6                	mv	s1,a3
    800029be:	8aba                	mv	s5,a4
  if (off > ip->size || off + n < off)
    800029c0:	9f35                	addw	a4,a4,a3
    return 0;
    800029c2:	4501                	li	a0,0
  if (off > ip->size || off + n < off)
    800029c4:	0ad76b63          	bltu	a4,a3,80002a7a <readi+0xdc>
    800029c8:	e4ce                	sd	s3,72(sp)
  if (off + n > ip->size)
    800029ca:	00e7f463          	bgeu	a5,a4,800029d2 <readi+0x34>
    n = ip->size - off;
    800029ce:	40d78abb          	subw	s5,a5,a3

  for (tot = 0; tot < n; tot += m, off += m, dst += m)
    800029d2:	080a8b63          	beqz	s5,80002a68 <readi+0xca>
    800029d6:	e8ca                	sd	s2,80(sp)
    800029d8:	f062                	sd	s8,32(sp)
    800029da:	ec66                	sd	s9,24(sp)
    800029dc:	e86a                	sd	s10,16(sp)
    800029de:	e46e                	sd	s11,8(sp)
    800029e0:	4981                	li	s3,0
  {
    uint addr = bmap(ip, off / BSIZE);
    if (addr == 0)
      break;
    bp = bread(ip->dev, addr);
    m = min(n - tot, BSIZE - off % BSIZE);
    800029e2:	40000c93          	li	s9,1024
    if (either_copyout(user_dst, dst, bp->data + (off % BSIZE), m) == -1)
    800029e6:	5c7d                	li	s8,-1
    800029e8:	a80d                	j	80002a1a <readi+0x7c>
    800029ea:	020d1d93          	slli	s11,s10,0x20
    800029ee:	020ddd93          	srli	s11,s11,0x20
    800029f2:	05890613          	addi	a2,s2,88
    800029f6:	86ee                	mv	a3,s11
    800029f8:	963e                	add	a2,a2,a5
    800029fa:	85d2                	mv	a1,s4
    800029fc:	855e                	mv	a0,s7
    800029fe:	cc1fe0ef          	jal	800016be <either_copyout>
    80002a02:	05850363          	beq	a0,s8,80002a48 <readi+0xaa>
    {
      brelse(bp);
      tot = -1;
      break;
    }
    brelse(bp);
    80002a06:	854a                	mv	a0,s2
    80002a08:	f3aff0ef          	jal	80002142 <brelse>
  for (tot = 0; tot < n; tot += m, off += m, dst += m)
    80002a0c:	013d09bb          	addw	s3,s10,s3
    80002a10:	009d04bb          	addw	s1,s10,s1
    80002a14:	9a6e                	add	s4,s4,s11
    80002a16:	0559f363          	bgeu	s3,s5,80002a5c <readi+0xbe>
    uint addr = bmap(ip, off / BSIZE);
    80002a1a:	00a4d59b          	srliw	a1,s1,0xa
    80002a1e:	855a                	mv	a0,s6
    80002a20:	981ff0ef          	jal	800023a0 <bmap>
    80002a24:	85aa                	mv	a1,a0
    if (addr == 0)
    80002a26:	c139                	beqz	a0,80002a6c <readi+0xce>
    bp = bread(ip->dev, addr);
    80002a28:	000b2503          	lw	a0,0(s6)
    80002a2c:	e0eff0ef          	jal	8000203a <bread>
